ARM GAS  C:\Users\strag\AppData\Local\Temp\ccM4RwII.s 			page 1


   1              		.syntax unified
   2              		.cpu cortex-m0
   3              		.fpu softvfp
   4              		.eabi_attribute 20, 1
   5              		.eabi_attribute 21, 1
   6              		.eabi_attribute 23, 3
   7              		.eabi_attribute 24, 1
   8              		.eabi_attribute 25, 1
   9              		.eabi_attribute 26, 1
  10              		.eabi_attribute 30, 1
  11              		.eabi_attribute 34, 0
  12              		.eabi_attribute 18, 4
  13              		.thumb
  14              		.syntax unified
  15              		.file	"stm32f0xx_ll_rtc.c"
  16              		.text
  17              	.Ltext0:
  18              		.cfi_sections	.debug_frame
  19              		.section	.text.LL_RTC_StructInit,"ax",%progbits
  20              		.align	2
  21              		.global	LL_RTC_StructInit
  22              		.code	16
  23              		.thumb_func
  25              	LL_RTC_StructInit:
  26              	.LFB191:
  27              		.file 1 "Drivers/STM32F0xx_HAL_Driver/Src/stm32f0xx_ll_rtc.c"
   1:Drivers/STM32F0xx_HAL_Driver/Src/stm32f0xx_ll_rtc.c **** /**
   2:Drivers/STM32F0xx_HAL_Driver/Src/stm32f0xx_ll_rtc.c ****   ******************************************************************************
   3:Drivers/STM32F0xx_HAL_Driver/Src/stm32f0xx_ll_rtc.c ****   * @file    stm32f0xx_ll_rtc.c
   4:Drivers/STM32F0xx_HAL_Driver/Src/stm32f0xx_ll_rtc.c ****   * @author  MCD Application Team
   5:Drivers/STM32F0xx_HAL_Driver/Src/stm32f0xx_ll_rtc.c ****   * @brief   RTC LL module driver.
   6:Drivers/STM32F0xx_HAL_Driver/Src/stm32f0xx_ll_rtc.c ****   ******************************************************************************
   7:Drivers/STM32F0xx_HAL_Driver/Src/stm32f0xx_ll_rtc.c ****   * @attention
   8:Drivers/STM32F0xx_HAL_Driver/Src/stm32f0xx_ll_rtc.c ****   *
   9:Drivers/STM32F0xx_HAL_Driver/Src/stm32f0xx_ll_rtc.c ****   * <h2><center>&copy; COPYRIGHT(c) 2016 STMicroelectronics</center></h2>
  10:Drivers/STM32F0xx_HAL_Driver/Src/stm32f0xx_ll_rtc.c ****   *
  11:Drivers/STM32F0xx_HAL_Driver/Src/stm32f0xx_ll_rtc.c ****   * Redistribution and use in source and binary forms, with or without modification,
  12:Drivers/STM32F0xx_HAL_Driver/Src/stm32f0xx_ll_rtc.c ****   * are permitted provided that the following conditions are met:
  13:Drivers/STM32F0xx_HAL_Driver/Src/stm32f0xx_ll_rtc.c ****   *   1. Redistributions of source code must retain the above copyright notice,
  14:Drivers/STM32F0xx_HAL_Driver/Src/stm32f0xx_ll_rtc.c ****   *      this list of conditions and the following disclaimer.
  15:Drivers/STM32F0xx_HAL_Driver/Src/stm32f0xx_ll_rtc.c ****   *   2. Redistributions in binary form must reproduce the above copyright notice,
  16:Drivers/STM32F0xx_HAL_Driver/Src/stm32f0xx_ll_rtc.c ****   *      this list of conditions and the following disclaimer in the documentation
  17:Drivers/STM32F0xx_HAL_Driver/Src/stm32f0xx_ll_rtc.c ****   *      and/or other materials provided with the distribution.
  18:Drivers/STM32F0xx_HAL_Driver/Src/stm32f0xx_ll_rtc.c ****   *   3. Neither the name of STMicroelectronics nor the names of its contributors
  19:Drivers/STM32F0xx_HAL_Driver/Src/stm32f0xx_ll_rtc.c ****   *      may be used to endorse or promote products derived from this software
  20:Drivers/STM32F0xx_HAL_Driver/Src/stm32f0xx_ll_rtc.c ****   *      without specific prior written permission.
  21:Drivers/STM32F0xx_HAL_Driver/Src/stm32f0xx_ll_rtc.c ****   *
  22:Drivers/STM32F0xx_HAL_Driver/Src/stm32f0xx_ll_rtc.c ****   * THIS SOFTWARE IS PROVIDED BY THE COPYRIGHT HOLDERS AND CONTRIBUTORS "AS IS"
  23:Drivers/STM32F0xx_HAL_Driver/Src/stm32f0xx_ll_rtc.c ****   * AND ANY EXPRESS OR IMPLIED WARRANTIES, INCLUDING, BUT NOT LIMITED TO, THE
  24:Drivers/STM32F0xx_HAL_Driver/Src/stm32f0xx_ll_rtc.c ****   * IMPLIED WARRANTIES OF MERCHANTABILITY AND FITNESS FOR A PARTICULAR PURPOSE ARE
  25:Drivers/STM32F0xx_HAL_Driver/Src/stm32f0xx_ll_rtc.c ****   * DISCLAIMED. IN NO EVENT SHALL THE COPYRIGHT HOLDER OR CONTRIBUTORS BE LIABLE
  26:Drivers/STM32F0xx_HAL_Driver/Src/stm32f0xx_ll_rtc.c ****   * FOR ANY DIRECT, INDIRECT, INCIDENTAL, SPECIAL, EXEMPLARY, OR CONSEQUENTIAL
  27:Drivers/STM32F0xx_HAL_Driver/Src/stm32f0xx_ll_rtc.c ****   * DAMAGES (INCLUDING, BUT NOT LIMITED TO, PROCUREMENT OF SUBSTITUTE GOODS OR
  28:Drivers/STM32F0xx_HAL_Driver/Src/stm32f0xx_ll_rtc.c ****   * SERVICES; LOSS OF USE, DATA, OR PROFITS; OR BUSINESS INTERRUPTION) HOWEVER
  29:Drivers/STM32F0xx_HAL_Driver/Src/stm32f0xx_ll_rtc.c ****   * CAUSED AND ON ANY THEORY OF LIABILITY, WHETHER IN CONTRACT, STRICT LIABILITY,
  30:Drivers/STM32F0xx_HAL_Driver/Src/stm32f0xx_ll_rtc.c ****   * OR TORT (INCLUDING NEGLIGENCE OR OTHERWISE) ARISING IN ANY WAY OUT OF THE USE
  31:Drivers/STM32F0xx_HAL_Driver/Src/stm32f0xx_ll_rtc.c ****   * OF THIS SOFTWARE, EVEN IF ADVISED OF THE POSSIBILITY OF SUCH DAMAGE.
ARM GAS  C:\Users\strag\AppData\Local\Temp\ccM4RwII.s 			page 2


  32:Drivers/STM32F0xx_HAL_Driver/Src/stm32f0xx_ll_rtc.c ****   *
  33:Drivers/STM32F0xx_HAL_Driver/Src/stm32f0xx_ll_rtc.c ****   ******************************************************************************
  34:Drivers/STM32F0xx_HAL_Driver/Src/stm32f0xx_ll_rtc.c ****   */
  35:Drivers/STM32F0xx_HAL_Driver/Src/stm32f0xx_ll_rtc.c **** #if defined(USE_FULL_LL_DRIVER)
  36:Drivers/STM32F0xx_HAL_Driver/Src/stm32f0xx_ll_rtc.c **** 
  37:Drivers/STM32F0xx_HAL_Driver/Src/stm32f0xx_ll_rtc.c **** /* Includes ------------------------------------------------------------------*/
  38:Drivers/STM32F0xx_HAL_Driver/Src/stm32f0xx_ll_rtc.c **** #include "stm32f0xx_ll_rtc.h"
  39:Drivers/STM32F0xx_HAL_Driver/Src/stm32f0xx_ll_rtc.c **** #include "stm32f0xx_ll_cortex.h"
  40:Drivers/STM32F0xx_HAL_Driver/Src/stm32f0xx_ll_rtc.c **** #ifdef  USE_FULL_ASSERT
  41:Drivers/STM32F0xx_HAL_Driver/Src/stm32f0xx_ll_rtc.c **** #include "stm32_assert.h"
  42:Drivers/STM32F0xx_HAL_Driver/Src/stm32f0xx_ll_rtc.c **** #else
  43:Drivers/STM32F0xx_HAL_Driver/Src/stm32f0xx_ll_rtc.c **** #define assert_param(expr) ((void)0U)
  44:Drivers/STM32F0xx_HAL_Driver/Src/stm32f0xx_ll_rtc.c **** #endif
  45:Drivers/STM32F0xx_HAL_Driver/Src/stm32f0xx_ll_rtc.c **** 
  46:Drivers/STM32F0xx_HAL_Driver/Src/stm32f0xx_ll_rtc.c **** /** @addtogroup STM32F0xx_LL_Driver
  47:Drivers/STM32F0xx_HAL_Driver/Src/stm32f0xx_ll_rtc.c ****   * @{
  48:Drivers/STM32F0xx_HAL_Driver/Src/stm32f0xx_ll_rtc.c ****   */
  49:Drivers/STM32F0xx_HAL_Driver/Src/stm32f0xx_ll_rtc.c **** 
  50:Drivers/STM32F0xx_HAL_Driver/Src/stm32f0xx_ll_rtc.c **** #if defined(RTC)
  51:Drivers/STM32F0xx_HAL_Driver/Src/stm32f0xx_ll_rtc.c **** 
  52:Drivers/STM32F0xx_HAL_Driver/Src/stm32f0xx_ll_rtc.c **** /** @addtogroup RTC_LL
  53:Drivers/STM32F0xx_HAL_Driver/Src/stm32f0xx_ll_rtc.c ****   * @{
  54:Drivers/STM32F0xx_HAL_Driver/Src/stm32f0xx_ll_rtc.c ****   */
  55:Drivers/STM32F0xx_HAL_Driver/Src/stm32f0xx_ll_rtc.c **** 
  56:Drivers/STM32F0xx_HAL_Driver/Src/stm32f0xx_ll_rtc.c **** /* Private types -------------------------------------------------------------*/
  57:Drivers/STM32F0xx_HAL_Driver/Src/stm32f0xx_ll_rtc.c **** /* Private variables ---------------------------------------------------------*/
  58:Drivers/STM32F0xx_HAL_Driver/Src/stm32f0xx_ll_rtc.c **** /* Private constants ---------------------------------------------------------*/
  59:Drivers/STM32F0xx_HAL_Driver/Src/stm32f0xx_ll_rtc.c **** /** @addtogroup RTC_LL_Private_Constants
  60:Drivers/STM32F0xx_HAL_Driver/Src/stm32f0xx_ll_rtc.c ****   * @{
  61:Drivers/STM32F0xx_HAL_Driver/Src/stm32f0xx_ll_rtc.c ****   */
  62:Drivers/STM32F0xx_HAL_Driver/Src/stm32f0xx_ll_rtc.c **** /* Default values used for prescaler */
  63:Drivers/STM32F0xx_HAL_Driver/Src/stm32f0xx_ll_rtc.c **** #define RTC_ASYNCH_PRESC_DEFAULT     0x0000007FU
  64:Drivers/STM32F0xx_HAL_Driver/Src/stm32f0xx_ll_rtc.c **** #define RTC_SYNCH_PRESC_DEFAULT      0x000000FFU
  65:Drivers/STM32F0xx_HAL_Driver/Src/stm32f0xx_ll_rtc.c **** 
  66:Drivers/STM32F0xx_HAL_Driver/Src/stm32f0xx_ll_rtc.c **** /* Values used for timeout */
  67:Drivers/STM32F0xx_HAL_Driver/Src/stm32f0xx_ll_rtc.c **** #define RTC_INITMODE_TIMEOUT         1000U /* 1s when tick set to 1ms */
  68:Drivers/STM32F0xx_HAL_Driver/Src/stm32f0xx_ll_rtc.c **** #define RTC_SYNCHRO_TIMEOUT          1000U /* 1s when tick set to 1ms */
  69:Drivers/STM32F0xx_HAL_Driver/Src/stm32f0xx_ll_rtc.c **** /**
  70:Drivers/STM32F0xx_HAL_Driver/Src/stm32f0xx_ll_rtc.c ****   * @}
  71:Drivers/STM32F0xx_HAL_Driver/Src/stm32f0xx_ll_rtc.c ****   */
  72:Drivers/STM32F0xx_HAL_Driver/Src/stm32f0xx_ll_rtc.c **** 
  73:Drivers/STM32F0xx_HAL_Driver/Src/stm32f0xx_ll_rtc.c **** /* Private macros ------------------------------------------------------------*/
  74:Drivers/STM32F0xx_HAL_Driver/Src/stm32f0xx_ll_rtc.c **** /** @addtogroup RTC_LL_Private_Macros
  75:Drivers/STM32F0xx_HAL_Driver/Src/stm32f0xx_ll_rtc.c ****   * @{
  76:Drivers/STM32F0xx_HAL_Driver/Src/stm32f0xx_ll_rtc.c ****   */
  77:Drivers/STM32F0xx_HAL_Driver/Src/stm32f0xx_ll_rtc.c **** 
  78:Drivers/STM32F0xx_HAL_Driver/Src/stm32f0xx_ll_rtc.c **** #define IS_LL_RTC_HOURFORMAT(__VALUE__) (((__VALUE__) == LL_RTC_HOURFORMAT_24HOUR) \
  79:Drivers/STM32F0xx_HAL_Driver/Src/stm32f0xx_ll_rtc.c ****                                       || ((__VALUE__) == LL_RTC_HOURFORMAT_AMPM))
  80:Drivers/STM32F0xx_HAL_Driver/Src/stm32f0xx_ll_rtc.c **** 
  81:Drivers/STM32F0xx_HAL_Driver/Src/stm32f0xx_ll_rtc.c **** #define IS_LL_RTC_ASYNCH_PREDIV(__VALUE__)   ((__VALUE__) <= 0x7FU)
  82:Drivers/STM32F0xx_HAL_Driver/Src/stm32f0xx_ll_rtc.c **** 
  83:Drivers/STM32F0xx_HAL_Driver/Src/stm32f0xx_ll_rtc.c **** #define IS_LL_RTC_SYNCH_PREDIV(__VALUE__)    ((__VALUE__) <= 0x7FFFU)
  84:Drivers/STM32F0xx_HAL_Driver/Src/stm32f0xx_ll_rtc.c **** 
  85:Drivers/STM32F0xx_HAL_Driver/Src/stm32f0xx_ll_rtc.c **** #define IS_LL_RTC_FORMAT(__VALUE__) (((__VALUE__) == LL_RTC_FORMAT_BIN) \
  86:Drivers/STM32F0xx_HAL_Driver/Src/stm32f0xx_ll_rtc.c ****                                   || ((__VALUE__) == LL_RTC_FORMAT_BCD))
  87:Drivers/STM32F0xx_HAL_Driver/Src/stm32f0xx_ll_rtc.c **** 
  88:Drivers/STM32F0xx_HAL_Driver/Src/stm32f0xx_ll_rtc.c **** #define IS_LL_RTC_TIME_FORMAT(__VALUE__) (((__VALUE__) == LL_RTC_TIME_FORMAT_AM_OR_24) \
ARM GAS  C:\Users\strag\AppData\Local\Temp\ccM4RwII.s 			page 3


  89:Drivers/STM32F0xx_HAL_Driver/Src/stm32f0xx_ll_rtc.c ****                                        || ((__VALUE__) == LL_RTC_TIME_FORMAT_PM))
  90:Drivers/STM32F0xx_HAL_Driver/Src/stm32f0xx_ll_rtc.c **** 
  91:Drivers/STM32F0xx_HAL_Driver/Src/stm32f0xx_ll_rtc.c **** #define IS_LL_RTC_HOUR12(__HOUR__)            (((__HOUR__) > 0U) && ((__HOUR__) <= 12U))
  92:Drivers/STM32F0xx_HAL_Driver/Src/stm32f0xx_ll_rtc.c **** #define IS_LL_RTC_HOUR24(__HOUR__)            ((__HOUR__) <= 23U)
  93:Drivers/STM32F0xx_HAL_Driver/Src/stm32f0xx_ll_rtc.c **** #define IS_LL_RTC_MINUTES(__MINUTES__)        ((__MINUTES__) <= 59U)
  94:Drivers/STM32F0xx_HAL_Driver/Src/stm32f0xx_ll_rtc.c **** #define IS_LL_RTC_SECONDS(__SECONDS__)        ((__SECONDS__) <= 59U)
  95:Drivers/STM32F0xx_HAL_Driver/Src/stm32f0xx_ll_rtc.c **** 
  96:Drivers/STM32F0xx_HAL_Driver/Src/stm32f0xx_ll_rtc.c **** #define IS_LL_RTC_WEEKDAY(__VALUE__) (((__VALUE__) == LL_RTC_WEEKDAY_MONDAY) \
  97:Drivers/STM32F0xx_HAL_Driver/Src/stm32f0xx_ll_rtc.c ****                                    || ((__VALUE__) == LL_RTC_WEEKDAY_TUESDAY) \
  98:Drivers/STM32F0xx_HAL_Driver/Src/stm32f0xx_ll_rtc.c ****                                    || ((__VALUE__) == LL_RTC_WEEKDAY_WEDNESDAY) \
  99:Drivers/STM32F0xx_HAL_Driver/Src/stm32f0xx_ll_rtc.c ****                                    || ((__VALUE__) == LL_RTC_WEEKDAY_THURSDAY) \
 100:Drivers/STM32F0xx_HAL_Driver/Src/stm32f0xx_ll_rtc.c ****                                    || ((__VALUE__) == LL_RTC_WEEKDAY_FRIDAY) \
 101:Drivers/STM32F0xx_HAL_Driver/Src/stm32f0xx_ll_rtc.c ****                                    || ((__VALUE__) == LL_RTC_WEEKDAY_SATURDAY) \
 102:Drivers/STM32F0xx_HAL_Driver/Src/stm32f0xx_ll_rtc.c ****                                    || ((__VALUE__) == LL_RTC_WEEKDAY_SUNDAY))
 103:Drivers/STM32F0xx_HAL_Driver/Src/stm32f0xx_ll_rtc.c **** 
 104:Drivers/STM32F0xx_HAL_Driver/Src/stm32f0xx_ll_rtc.c **** #define IS_LL_RTC_DAY(__DAY__)    (((__DAY__) >= 1U) && ((__DAY__) <= 31U))
 105:Drivers/STM32F0xx_HAL_Driver/Src/stm32f0xx_ll_rtc.c **** 
 106:Drivers/STM32F0xx_HAL_Driver/Src/stm32f0xx_ll_rtc.c **** #define IS_LL_RTC_MONTH(__VALUE__) (((__VALUE__) == LL_RTC_MONTH_JANUARY) \
 107:Drivers/STM32F0xx_HAL_Driver/Src/stm32f0xx_ll_rtc.c ****                                  || ((__VALUE__) == LL_RTC_MONTH_FEBRUARY) \
 108:Drivers/STM32F0xx_HAL_Driver/Src/stm32f0xx_ll_rtc.c ****                                  || ((__VALUE__) == LL_RTC_MONTH_MARCH) \
 109:Drivers/STM32F0xx_HAL_Driver/Src/stm32f0xx_ll_rtc.c ****                                  || ((__VALUE__) == LL_RTC_MONTH_APRIL) \
 110:Drivers/STM32F0xx_HAL_Driver/Src/stm32f0xx_ll_rtc.c ****                                  || ((__VALUE__) == LL_RTC_MONTH_MAY) \
 111:Drivers/STM32F0xx_HAL_Driver/Src/stm32f0xx_ll_rtc.c ****                                  || ((__VALUE__) == LL_RTC_MONTH_JUNE) \
 112:Drivers/STM32F0xx_HAL_Driver/Src/stm32f0xx_ll_rtc.c ****                                  || ((__VALUE__) == LL_RTC_MONTH_JULY) \
 113:Drivers/STM32F0xx_HAL_Driver/Src/stm32f0xx_ll_rtc.c ****                                  || ((__VALUE__) == LL_RTC_MONTH_AUGUST) \
 114:Drivers/STM32F0xx_HAL_Driver/Src/stm32f0xx_ll_rtc.c ****                                  || ((__VALUE__) == LL_RTC_MONTH_SEPTEMBER) \
 115:Drivers/STM32F0xx_HAL_Driver/Src/stm32f0xx_ll_rtc.c ****                                  || ((__VALUE__) == LL_RTC_MONTH_OCTOBER) \
 116:Drivers/STM32F0xx_HAL_Driver/Src/stm32f0xx_ll_rtc.c ****                                  || ((__VALUE__) == LL_RTC_MONTH_NOVEMBER) \
 117:Drivers/STM32F0xx_HAL_Driver/Src/stm32f0xx_ll_rtc.c ****                                  || ((__VALUE__) == LL_RTC_MONTH_DECEMBER))
 118:Drivers/STM32F0xx_HAL_Driver/Src/stm32f0xx_ll_rtc.c **** 
 119:Drivers/STM32F0xx_HAL_Driver/Src/stm32f0xx_ll_rtc.c **** #define IS_LL_RTC_YEAR(__YEAR__) ((__YEAR__) <= 99U)
 120:Drivers/STM32F0xx_HAL_Driver/Src/stm32f0xx_ll_rtc.c **** 
 121:Drivers/STM32F0xx_HAL_Driver/Src/stm32f0xx_ll_rtc.c **** #define IS_LL_RTC_ALMA_MASK(__VALUE__) (((__VALUE__) == LL_RTC_ALMA_MASK_NONE) \
 122:Drivers/STM32F0xx_HAL_Driver/Src/stm32f0xx_ll_rtc.c ****                                      || ((__VALUE__) == LL_RTC_ALMA_MASK_DATEWEEKDAY) \
 123:Drivers/STM32F0xx_HAL_Driver/Src/stm32f0xx_ll_rtc.c ****                                      || ((__VALUE__) == LL_RTC_ALMA_MASK_HOURS) \
 124:Drivers/STM32F0xx_HAL_Driver/Src/stm32f0xx_ll_rtc.c ****                                      || ((__VALUE__) == LL_RTC_ALMA_MASK_MINUTES) \
 125:Drivers/STM32F0xx_HAL_Driver/Src/stm32f0xx_ll_rtc.c ****                                      || ((__VALUE__) == LL_RTC_ALMA_MASK_SECONDS) \
 126:Drivers/STM32F0xx_HAL_Driver/Src/stm32f0xx_ll_rtc.c ****                                      || ((__VALUE__) == LL_RTC_ALMA_MASK_ALL))
 127:Drivers/STM32F0xx_HAL_Driver/Src/stm32f0xx_ll_rtc.c **** 
 128:Drivers/STM32F0xx_HAL_Driver/Src/stm32f0xx_ll_rtc.c **** 
 129:Drivers/STM32F0xx_HAL_Driver/Src/stm32f0xx_ll_rtc.c **** #define IS_LL_RTC_ALMA_DATE_WEEKDAY_SEL(__SEL__) (((__SEL__) == LL_RTC_ALMA_DATEWEEKDAYSEL_DATE) ||
 130:Drivers/STM32F0xx_HAL_Driver/Src/stm32f0xx_ll_rtc.c ****                                                   ((__SEL__) == LL_RTC_ALMA_DATEWEEKDAYSEL_WEEKDAY)
 131:Drivers/STM32F0xx_HAL_Driver/Src/stm32f0xx_ll_rtc.c **** 
 132:Drivers/STM32F0xx_HAL_Driver/Src/stm32f0xx_ll_rtc.c **** 
 133:Drivers/STM32F0xx_HAL_Driver/Src/stm32f0xx_ll_rtc.c **** /**
 134:Drivers/STM32F0xx_HAL_Driver/Src/stm32f0xx_ll_rtc.c ****   * @}
 135:Drivers/STM32F0xx_HAL_Driver/Src/stm32f0xx_ll_rtc.c ****   */
 136:Drivers/STM32F0xx_HAL_Driver/Src/stm32f0xx_ll_rtc.c **** /* Private function prototypes -----------------------------------------------*/
 137:Drivers/STM32F0xx_HAL_Driver/Src/stm32f0xx_ll_rtc.c **** /* Exported functions --------------------------------------------------------*/
 138:Drivers/STM32F0xx_HAL_Driver/Src/stm32f0xx_ll_rtc.c **** /** @addtogroup RTC_LL_Exported_Functions
 139:Drivers/STM32F0xx_HAL_Driver/Src/stm32f0xx_ll_rtc.c ****   * @{
 140:Drivers/STM32F0xx_HAL_Driver/Src/stm32f0xx_ll_rtc.c ****   */
 141:Drivers/STM32F0xx_HAL_Driver/Src/stm32f0xx_ll_rtc.c **** 
 142:Drivers/STM32F0xx_HAL_Driver/Src/stm32f0xx_ll_rtc.c **** /** @addtogroup RTC_LL_EF_Init
 143:Drivers/STM32F0xx_HAL_Driver/Src/stm32f0xx_ll_rtc.c ****   * @{
 144:Drivers/STM32F0xx_HAL_Driver/Src/stm32f0xx_ll_rtc.c ****   */
 145:Drivers/STM32F0xx_HAL_Driver/Src/stm32f0xx_ll_rtc.c **** 
ARM GAS  C:\Users\strag\AppData\Local\Temp\ccM4RwII.s 			page 4


 146:Drivers/STM32F0xx_HAL_Driver/Src/stm32f0xx_ll_rtc.c **** /**
 147:Drivers/STM32F0xx_HAL_Driver/Src/stm32f0xx_ll_rtc.c ****   * @brief  De-Initializes the RTC registers to their default reset values.
 148:Drivers/STM32F0xx_HAL_Driver/Src/stm32f0xx_ll_rtc.c ****   * @note   This function doesn't reset the RTC Clock source and RTC Backup Data
 149:Drivers/STM32F0xx_HAL_Driver/Src/stm32f0xx_ll_rtc.c ****   *         registers.
 150:Drivers/STM32F0xx_HAL_Driver/Src/stm32f0xx_ll_rtc.c ****   * @param  RTCx RTC Instance
 151:Drivers/STM32F0xx_HAL_Driver/Src/stm32f0xx_ll_rtc.c ****   * @retval An ErrorStatus enumeration value:
 152:Drivers/STM32F0xx_HAL_Driver/Src/stm32f0xx_ll_rtc.c ****   *          - SUCCESS: RTC registers are de-initialized
 153:Drivers/STM32F0xx_HAL_Driver/Src/stm32f0xx_ll_rtc.c ****   *          - ERROR: RTC registers are not de-initialized
 154:Drivers/STM32F0xx_HAL_Driver/Src/stm32f0xx_ll_rtc.c ****   */
 155:Drivers/STM32F0xx_HAL_Driver/Src/stm32f0xx_ll_rtc.c **** ErrorStatus LL_RTC_DeInit(RTC_TypeDef *RTCx)
 156:Drivers/STM32F0xx_HAL_Driver/Src/stm32f0xx_ll_rtc.c **** {
 157:Drivers/STM32F0xx_HAL_Driver/Src/stm32f0xx_ll_rtc.c ****   ErrorStatus status = ERROR;
 158:Drivers/STM32F0xx_HAL_Driver/Src/stm32f0xx_ll_rtc.c **** 
 159:Drivers/STM32F0xx_HAL_Driver/Src/stm32f0xx_ll_rtc.c ****   /* Check the parameter */
 160:Drivers/STM32F0xx_HAL_Driver/Src/stm32f0xx_ll_rtc.c ****   assert_param(IS_RTC_ALL_INSTANCE(RTCx));
 161:Drivers/STM32F0xx_HAL_Driver/Src/stm32f0xx_ll_rtc.c **** 
 162:Drivers/STM32F0xx_HAL_Driver/Src/stm32f0xx_ll_rtc.c ****   /* Disable the write protection for RTC registers */
 163:Drivers/STM32F0xx_HAL_Driver/Src/stm32f0xx_ll_rtc.c ****   LL_RTC_DisableWriteProtection(RTCx);
 164:Drivers/STM32F0xx_HAL_Driver/Src/stm32f0xx_ll_rtc.c **** 
 165:Drivers/STM32F0xx_HAL_Driver/Src/stm32f0xx_ll_rtc.c ****   /* Set Initialization mode */
 166:Drivers/STM32F0xx_HAL_Driver/Src/stm32f0xx_ll_rtc.c ****   if (LL_RTC_EnterInitMode(RTCx) != ERROR)
 167:Drivers/STM32F0xx_HAL_Driver/Src/stm32f0xx_ll_rtc.c ****   {
 168:Drivers/STM32F0xx_HAL_Driver/Src/stm32f0xx_ll_rtc.c ****     /* Reset TR, DR and CR registers */
 169:Drivers/STM32F0xx_HAL_Driver/Src/stm32f0xx_ll_rtc.c ****     LL_RTC_WriteReg(RTCx, TR,       0x00000000U);
 170:Drivers/STM32F0xx_HAL_Driver/Src/stm32f0xx_ll_rtc.c **** #if defined(RTC_WAKEUP_SUPPORT)
 171:Drivers/STM32F0xx_HAL_Driver/Src/stm32f0xx_ll_rtc.c ****     LL_RTC_WriteReg(RTCx, WUTR,     RTC_WUTR_WUT);
 172:Drivers/STM32F0xx_HAL_Driver/Src/stm32f0xx_ll_rtc.c **** #endif /* RTC_WAKEUP_SUPPORT */
 173:Drivers/STM32F0xx_HAL_Driver/Src/stm32f0xx_ll_rtc.c ****     LL_RTC_WriteReg(RTCx, DR  ,     (RTC_DR_WDU_0 | RTC_DR_MU_0 | RTC_DR_DU_0));
 174:Drivers/STM32F0xx_HAL_Driver/Src/stm32f0xx_ll_rtc.c ****     /* Reset All CR bits except CR[2:0] */
 175:Drivers/STM32F0xx_HAL_Driver/Src/stm32f0xx_ll_rtc.c **** #if defined(RTC_WAKEUP_SUPPORT)
 176:Drivers/STM32F0xx_HAL_Driver/Src/stm32f0xx_ll_rtc.c ****     LL_RTC_WriteReg(RTCx, CR, (LL_RTC_ReadReg(RTCx, CR) & RTC_CR_WUCKSEL));
 177:Drivers/STM32F0xx_HAL_Driver/Src/stm32f0xx_ll_rtc.c **** #else
 178:Drivers/STM32F0xx_HAL_Driver/Src/stm32f0xx_ll_rtc.c ****     LL_RTC_WriteReg(RTCx, CR, 0x00000000U);
 179:Drivers/STM32F0xx_HAL_Driver/Src/stm32f0xx_ll_rtc.c **** #endif /* RTC_WAKEUP_SUPPORT */
 180:Drivers/STM32F0xx_HAL_Driver/Src/stm32f0xx_ll_rtc.c ****     LL_RTC_WriteReg(RTCx, PRER,     (RTC_PRER_PREDIV_A | RTC_SYNCH_PRESC_DEFAULT));
 181:Drivers/STM32F0xx_HAL_Driver/Src/stm32f0xx_ll_rtc.c ****     LL_RTC_WriteReg(RTCx, ALRMAR,   0x00000000U);
 182:Drivers/STM32F0xx_HAL_Driver/Src/stm32f0xx_ll_rtc.c ****     LL_RTC_WriteReg(RTCx, SHIFTR,   0x00000000U);
 183:Drivers/STM32F0xx_HAL_Driver/Src/stm32f0xx_ll_rtc.c ****     LL_RTC_WriteReg(RTCx, CALR,     0x00000000U);
 184:Drivers/STM32F0xx_HAL_Driver/Src/stm32f0xx_ll_rtc.c ****     LL_RTC_WriteReg(RTCx, ALRMASSR, 0x00000000U);
 185:Drivers/STM32F0xx_HAL_Driver/Src/stm32f0xx_ll_rtc.c **** 
 186:Drivers/STM32F0xx_HAL_Driver/Src/stm32f0xx_ll_rtc.c ****     /* Reset ISR register and exit initialization mode */
 187:Drivers/STM32F0xx_HAL_Driver/Src/stm32f0xx_ll_rtc.c ****     LL_RTC_WriteReg(RTCx, ISR,      0x00000000U);
 188:Drivers/STM32F0xx_HAL_Driver/Src/stm32f0xx_ll_rtc.c **** 
 189:Drivers/STM32F0xx_HAL_Driver/Src/stm32f0xx_ll_rtc.c ****     /* Reset Tamper and alternate functions configuration register */
 190:Drivers/STM32F0xx_HAL_Driver/Src/stm32f0xx_ll_rtc.c ****     LL_RTC_WriteReg(RTCx, TAFCR, 0x00000000U);
 191:Drivers/STM32F0xx_HAL_Driver/Src/stm32f0xx_ll_rtc.c **** 
 192:Drivers/STM32F0xx_HAL_Driver/Src/stm32f0xx_ll_rtc.c ****     /* Wait till the RTC RSF flag is set */
 193:Drivers/STM32F0xx_HAL_Driver/Src/stm32f0xx_ll_rtc.c ****     status = LL_RTC_WaitForSynchro(RTCx);
 194:Drivers/STM32F0xx_HAL_Driver/Src/stm32f0xx_ll_rtc.c ****   }
 195:Drivers/STM32F0xx_HAL_Driver/Src/stm32f0xx_ll_rtc.c **** 
 196:Drivers/STM32F0xx_HAL_Driver/Src/stm32f0xx_ll_rtc.c ****   /* Enable the write protection for RTC registers */
 197:Drivers/STM32F0xx_HAL_Driver/Src/stm32f0xx_ll_rtc.c ****   LL_RTC_EnableWriteProtection(RTCx);
 198:Drivers/STM32F0xx_HAL_Driver/Src/stm32f0xx_ll_rtc.c **** 
 199:Drivers/STM32F0xx_HAL_Driver/Src/stm32f0xx_ll_rtc.c ****   return status;
 200:Drivers/STM32F0xx_HAL_Driver/Src/stm32f0xx_ll_rtc.c **** }
 201:Drivers/STM32F0xx_HAL_Driver/Src/stm32f0xx_ll_rtc.c **** 
 202:Drivers/STM32F0xx_HAL_Driver/Src/stm32f0xx_ll_rtc.c **** /**
ARM GAS  C:\Users\strag\AppData\Local\Temp\ccM4RwII.s 			page 5


 203:Drivers/STM32F0xx_HAL_Driver/Src/stm32f0xx_ll_rtc.c ****   * @brief  Initializes the RTC registers according to the specified parameters
 204:Drivers/STM32F0xx_HAL_Driver/Src/stm32f0xx_ll_rtc.c ****   *         in RTC_InitStruct.
 205:Drivers/STM32F0xx_HAL_Driver/Src/stm32f0xx_ll_rtc.c ****   * @param  RTCx RTC Instance
 206:Drivers/STM32F0xx_HAL_Driver/Src/stm32f0xx_ll_rtc.c ****   * @param  RTC_InitStruct pointer to a @ref LL_RTC_InitTypeDef structure that contains
 207:Drivers/STM32F0xx_HAL_Driver/Src/stm32f0xx_ll_rtc.c ****   *         the configuration information for the RTC peripheral.
 208:Drivers/STM32F0xx_HAL_Driver/Src/stm32f0xx_ll_rtc.c ****   * @note   The RTC Prescaler register is write protected and can be written in
 209:Drivers/STM32F0xx_HAL_Driver/Src/stm32f0xx_ll_rtc.c ****   *         initialization mode only.
 210:Drivers/STM32F0xx_HAL_Driver/Src/stm32f0xx_ll_rtc.c ****   * @retval An ErrorStatus enumeration value:
 211:Drivers/STM32F0xx_HAL_Driver/Src/stm32f0xx_ll_rtc.c ****   *          - SUCCESS: RTC registers are initialized
 212:Drivers/STM32F0xx_HAL_Driver/Src/stm32f0xx_ll_rtc.c ****   *          - ERROR: RTC registers are not initialized
 213:Drivers/STM32F0xx_HAL_Driver/Src/stm32f0xx_ll_rtc.c ****   */
 214:Drivers/STM32F0xx_HAL_Driver/Src/stm32f0xx_ll_rtc.c **** ErrorStatus LL_RTC_Init(RTC_TypeDef *RTCx, LL_RTC_InitTypeDef *RTC_InitStruct)
 215:Drivers/STM32F0xx_HAL_Driver/Src/stm32f0xx_ll_rtc.c **** {
 216:Drivers/STM32F0xx_HAL_Driver/Src/stm32f0xx_ll_rtc.c ****   ErrorStatus status = ERROR;
 217:Drivers/STM32F0xx_HAL_Driver/Src/stm32f0xx_ll_rtc.c **** 
 218:Drivers/STM32F0xx_HAL_Driver/Src/stm32f0xx_ll_rtc.c ****   /* Check the parameters */
 219:Drivers/STM32F0xx_HAL_Driver/Src/stm32f0xx_ll_rtc.c ****   assert_param(IS_RTC_ALL_INSTANCE(RTCx));
 220:Drivers/STM32F0xx_HAL_Driver/Src/stm32f0xx_ll_rtc.c ****   assert_param(IS_LL_RTC_HOURFORMAT(RTC_InitStruct->HourFormat));
 221:Drivers/STM32F0xx_HAL_Driver/Src/stm32f0xx_ll_rtc.c ****   assert_param(IS_LL_RTC_ASYNCH_PREDIV(RTC_InitStruct->AsynchPrescaler));
 222:Drivers/STM32F0xx_HAL_Driver/Src/stm32f0xx_ll_rtc.c ****   assert_param(IS_LL_RTC_SYNCH_PREDIV(RTC_InitStruct->SynchPrescaler));
 223:Drivers/STM32F0xx_HAL_Driver/Src/stm32f0xx_ll_rtc.c **** 
 224:Drivers/STM32F0xx_HAL_Driver/Src/stm32f0xx_ll_rtc.c ****   /* Disable the write protection for RTC registers */
 225:Drivers/STM32F0xx_HAL_Driver/Src/stm32f0xx_ll_rtc.c ****   LL_RTC_DisableWriteProtection(RTCx);
 226:Drivers/STM32F0xx_HAL_Driver/Src/stm32f0xx_ll_rtc.c **** 
 227:Drivers/STM32F0xx_HAL_Driver/Src/stm32f0xx_ll_rtc.c ****   /* Set Initialization mode */
 228:Drivers/STM32F0xx_HAL_Driver/Src/stm32f0xx_ll_rtc.c ****   if (LL_RTC_EnterInitMode(RTCx) != ERROR)
 229:Drivers/STM32F0xx_HAL_Driver/Src/stm32f0xx_ll_rtc.c ****   {
 230:Drivers/STM32F0xx_HAL_Driver/Src/stm32f0xx_ll_rtc.c ****     /* Set Hour Format */
 231:Drivers/STM32F0xx_HAL_Driver/Src/stm32f0xx_ll_rtc.c ****     LL_RTC_SetHourFormat(RTCx, RTC_InitStruct->HourFormat);
 232:Drivers/STM32F0xx_HAL_Driver/Src/stm32f0xx_ll_rtc.c **** 
 233:Drivers/STM32F0xx_HAL_Driver/Src/stm32f0xx_ll_rtc.c ****     /* Configure Synchronous and Asynchronous prescaler factor */
 234:Drivers/STM32F0xx_HAL_Driver/Src/stm32f0xx_ll_rtc.c ****     LL_RTC_SetSynchPrescaler(RTCx, RTC_InitStruct->SynchPrescaler);
 235:Drivers/STM32F0xx_HAL_Driver/Src/stm32f0xx_ll_rtc.c ****     LL_RTC_SetAsynchPrescaler(RTCx, RTC_InitStruct->AsynchPrescaler);
 236:Drivers/STM32F0xx_HAL_Driver/Src/stm32f0xx_ll_rtc.c **** 
 237:Drivers/STM32F0xx_HAL_Driver/Src/stm32f0xx_ll_rtc.c ****     /* Exit Initialization mode */
 238:Drivers/STM32F0xx_HAL_Driver/Src/stm32f0xx_ll_rtc.c ****     LL_RTC_DisableInitMode(RTCx);
 239:Drivers/STM32F0xx_HAL_Driver/Src/stm32f0xx_ll_rtc.c **** 
 240:Drivers/STM32F0xx_HAL_Driver/Src/stm32f0xx_ll_rtc.c ****     status = SUCCESS;
 241:Drivers/STM32F0xx_HAL_Driver/Src/stm32f0xx_ll_rtc.c ****   }
 242:Drivers/STM32F0xx_HAL_Driver/Src/stm32f0xx_ll_rtc.c ****   /* Enable the write protection for RTC registers */
 243:Drivers/STM32F0xx_HAL_Driver/Src/stm32f0xx_ll_rtc.c ****   LL_RTC_EnableWriteProtection(RTCx);
 244:Drivers/STM32F0xx_HAL_Driver/Src/stm32f0xx_ll_rtc.c **** 
 245:Drivers/STM32F0xx_HAL_Driver/Src/stm32f0xx_ll_rtc.c ****   return status;
 246:Drivers/STM32F0xx_HAL_Driver/Src/stm32f0xx_ll_rtc.c **** }
 247:Drivers/STM32F0xx_HAL_Driver/Src/stm32f0xx_ll_rtc.c **** 
 248:Drivers/STM32F0xx_HAL_Driver/Src/stm32f0xx_ll_rtc.c **** /**
 249:Drivers/STM32F0xx_HAL_Driver/Src/stm32f0xx_ll_rtc.c ****   * @brief  Set each @ref LL_RTC_InitTypeDef field to default value.
 250:Drivers/STM32F0xx_HAL_Driver/Src/stm32f0xx_ll_rtc.c ****   * @param  RTC_InitStruct pointer to a @ref LL_RTC_InitTypeDef structure which will be initialized
 251:Drivers/STM32F0xx_HAL_Driver/Src/stm32f0xx_ll_rtc.c ****   * @retval None
 252:Drivers/STM32F0xx_HAL_Driver/Src/stm32f0xx_ll_rtc.c ****   */
 253:Drivers/STM32F0xx_HAL_Driver/Src/stm32f0xx_ll_rtc.c **** void LL_RTC_StructInit(LL_RTC_InitTypeDef *RTC_InitStruct)
 254:Drivers/STM32F0xx_HAL_Driver/Src/stm32f0xx_ll_rtc.c **** {
  28              		.loc 1 254 0
  29              		.cfi_startproc
  30              		@ args = 0, pretend = 0, frame = 0
  31              		@ frame_needed = 0, uses_anonymous_args = 0
  32              		@ link register save eliminated.
ARM GAS  C:\Users\strag\AppData\Local\Temp\ccM4RwII.s 			page 6


  33              	.LVL0:
 255:Drivers/STM32F0xx_HAL_Driver/Src/stm32f0xx_ll_rtc.c ****   /* Set RTC_InitStruct fields to default values */
 256:Drivers/STM32F0xx_HAL_Driver/Src/stm32f0xx_ll_rtc.c ****   RTC_InitStruct->HourFormat      = LL_RTC_HOURFORMAT_24HOUR;
  34              		.loc 1 256 0
  35 0000 0023     		movs	r3, #0
  36 0002 0360     		str	r3, [r0]
 257:Drivers/STM32F0xx_HAL_Driver/Src/stm32f0xx_ll_rtc.c ****   RTC_InitStruct->AsynchPrescaler = RTC_ASYNCH_PRESC_DEFAULT;
  37              		.loc 1 257 0
  38 0004 7F33     		adds	r3, r3, #127
  39 0006 4360     		str	r3, [r0, #4]
 258:Drivers/STM32F0xx_HAL_Driver/Src/stm32f0xx_ll_rtc.c ****   RTC_InitStruct->SynchPrescaler  = RTC_SYNCH_PRESC_DEFAULT;
  40              		.loc 1 258 0
  41 0008 8033     		adds	r3, r3, #128
  42 000a 8360     		str	r3, [r0, #8]
 259:Drivers/STM32F0xx_HAL_Driver/Src/stm32f0xx_ll_rtc.c **** }
  43              		.loc 1 259 0
  44              		@ sp needed
  45 000c 7047     		bx	lr
  46              		.cfi_endproc
  47              	.LFE191:
  49 000e C046     		.section	.text.LL_RTC_TIME_StructInit,"ax",%progbits
  50              		.align	2
  51              		.global	LL_RTC_TIME_StructInit
  52              		.code	16
  53              		.thumb_func
  55              	LL_RTC_TIME_StructInit:
  56              	.LFB193:
 260:Drivers/STM32F0xx_HAL_Driver/Src/stm32f0xx_ll_rtc.c **** 
 261:Drivers/STM32F0xx_HAL_Driver/Src/stm32f0xx_ll_rtc.c **** /**
 262:Drivers/STM32F0xx_HAL_Driver/Src/stm32f0xx_ll_rtc.c ****   * @brief  Set the RTC current time.
 263:Drivers/STM32F0xx_HAL_Driver/Src/stm32f0xx_ll_rtc.c ****   * @param  RTCx RTC Instance
 264:Drivers/STM32F0xx_HAL_Driver/Src/stm32f0xx_ll_rtc.c ****   * @param  RTC_Format This parameter can be one of the following values:
 265:Drivers/STM32F0xx_HAL_Driver/Src/stm32f0xx_ll_rtc.c ****   *         @arg @ref LL_RTC_FORMAT_BIN
 266:Drivers/STM32F0xx_HAL_Driver/Src/stm32f0xx_ll_rtc.c ****   *         @arg @ref LL_RTC_FORMAT_BCD
 267:Drivers/STM32F0xx_HAL_Driver/Src/stm32f0xx_ll_rtc.c ****   * @param  RTC_TimeStruct pointer to a RTC_TimeTypeDef structure that contains
 268:Drivers/STM32F0xx_HAL_Driver/Src/stm32f0xx_ll_rtc.c ****   *                        the time configuration information for the RTC.
 269:Drivers/STM32F0xx_HAL_Driver/Src/stm32f0xx_ll_rtc.c ****   * @retval An ErrorStatus enumeration value:
 270:Drivers/STM32F0xx_HAL_Driver/Src/stm32f0xx_ll_rtc.c ****   *          - SUCCESS: RTC Time register is configured
 271:Drivers/STM32F0xx_HAL_Driver/Src/stm32f0xx_ll_rtc.c ****   *          - ERROR: RTC Time register is not configured
 272:Drivers/STM32F0xx_HAL_Driver/Src/stm32f0xx_ll_rtc.c ****   */
 273:Drivers/STM32F0xx_HAL_Driver/Src/stm32f0xx_ll_rtc.c **** ErrorStatus LL_RTC_TIME_Init(RTC_TypeDef *RTCx, uint32_t RTC_Format, LL_RTC_TimeTypeDef *RTC_TimeSt
 274:Drivers/STM32F0xx_HAL_Driver/Src/stm32f0xx_ll_rtc.c **** {
 275:Drivers/STM32F0xx_HAL_Driver/Src/stm32f0xx_ll_rtc.c ****   ErrorStatus status = ERROR;
 276:Drivers/STM32F0xx_HAL_Driver/Src/stm32f0xx_ll_rtc.c **** 
 277:Drivers/STM32F0xx_HAL_Driver/Src/stm32f0xx_ll_rtc.c ****   /* Check the parameters */
 278:Drivers/STM32F0xx_HAL_Driver/Src/stm32f0xx_ll_rtc.c ****   assert_param(IS_RTC_ALL_INSTANCE(RTCx));
 279:Drivers/STM32F0xx_HAL_Driver/Src/stm32f0xx_ll_rtc.c ****   assert_param(IS_LL_RTC_FORMAT(RTC_Format));
 280:Drivers/STM32F0xx_HAL_Driver/Src/stm32f0xx_ll_rtc.c **** 
 281:Drivers/STM32F0xx_HAL_Driver/Src/stm32f0xx_ll_rtc.c ****   if (RTC_Format == LL_RTC_FORMAT_BIN)
 282:Drivers/STM32F0xx_HAL_Driver/Src/stm32f0xx_ll_rtc.c ****   {
 283:Drivers/STM32F0xx_HAL_Driver/Src/stm32f0xx_ll_rtc.c ****     if (LL_RTC_GetHourFormat(RTCx) != LL_RTC_HOURFORMAT_24HOUR)
 284:Drivers/STM32F0xx_HAL_Driver/Src/stm32f0xx_ll_rtc.c ****     {
 285:Drivers/STM32F0xx_HAL_Driver/Src/stm32f0xx_ll_rtc.c ****       assert_param(IS_LL_RTC_HOUR12(RTC_TimeStruct->Hours));
 286:Drivers/STM32F0xx_HAL_Driver/Src/stm32f0xx_ll_rtc.c ****       assert_param(IS_LL_RTC_TIME_FORMAT(RTC_TimeStruct->TimeFormat));
 287:Drivers/STM32F0xx_HAL_Driver/Src/stm32f0xx_ll_rtc.c ****     }
 288:Drivers/STM32F0xx_HAL_Driver/Src/stm32f0xx_ll_rtc.c ****     else
 289:Drivers/STM32F0xx_HAL_Driver/Src/stm32f0xx_ll_rtc.c ****     {
ARM GAS  C:\Users\strag\AppData\Local\Temp\ccM4RwII.s 			page 7


 290:Drivers/STM32F0xx_HAL_Driver/Src/stm32f0xx_ll_rtc.c ****       RTC_TimeStruct->TimeFormat = 0x00U;
 291:Drivers/STM32F0xx_HAL_Driver/Src/stm32f0xx_ll_rtc.c ****       assert_param(IS_LL_RTC_HOUR24(RTC_TimeStruct->Hours));
 292:Drivers/STM32F0xx_HAL_Driver/Src/stm32f0xx_ll_rtc.c ****     }
 293:Drivers/STM32F0xx_HAL_Driver/Src/stm32f0xx_ll_rtc.c ****     assert_param(IS_LL_RTC_MINUTES(RTC_TimeStruct->Minutes));
 294:Drivers/STM32F0xx_HAL_Driver/Src/stm32f0xx_ll_rtc.c ****     assert_param(IS_LL_RTC_SECONDS(RTC_TimeStruct->Seconds));
 295:Drivers/STM32F0xx_HAL_Driver/Src/stm32f0xx_ll_rtc.c ****   }
 296:Drivers/STM32F0xx_HAL_Driver/Src/stm32f0xx_ll_rtc.c ****   else
 297:Drivers/STM32F0xx_HAL_Driver/Src/stm32f0xx_ll_rtc.c ****   {
 298:Drivers/STM32F0xx_HAL_Driver/Src/stm32f0xx_ll_rtc.c ****     if (LL_RTC_GetHourFormat(RTCx) != LL_RTC_HOURFORMAT_24HOUR)
 299:Drivers/STM32F0xx_HAL_Driver/Src/stm32f0xx_ll_rtc.c ****     {
 300:Drivers/STM32F0xx_HAL_Driver/Src/stm32f0xx_ll_rtc.c ****       assert_param(IS_LL_RTC_HOUR12(__LL_RTC_CONVERT_BCD2BIN(RTC_TimeStruct->Hours)));
 301:Drivers/STM32F0xx_HAL_Driver/Src/stm32f0xx_ll_rtc.c ****       assert_param(IS_LL_RTC_TIME_FORMAT(RTC_TimeStruct->TimeFormat));
 302:Drivers/STM32F0xx_HAL_Driver/Src/stm32f0xx_ll_rtc.c ****     }
 303:Drivers/STM32F0xx_HAL_Driver/Src/stm32f0xx_ll_rtc.c ****     else
 304:Drivers/STM32F0xx_HAL_Driver/Src/stm32f0xx_ll_rtc.c ****     {
 305:Drivers/STM32F0xx_HAL_Driver/Src/stm32f0xx_ll_rtc.c ****       RTC_TimeStruct->TimeFormat = 0x00U;
 306:Drivers/STM32F0xx_HAL_Driver/Src/stm32f0xx_ll_rtc.c ****       assert_param(IS_LL_RTC_HOUR24(__LL_RTC_CONVERT_BCD2BIN(RTC_TimeStruct->Hours)));
 307:Drivers/STM32F0xx_HAL_Driver/Src/stm32f0xx_ll_rtc.c ****     }
 308:Drivers/STM32F0xx_HAL_Driver/Src/stm32f0xx_ll_rtc.c ****     assert_param(IS_LL_RTC_MINUTES(__LL_RTC_CONVERT_BCD2BIN(RTC_TimeStruct->Minutes)));
 309:Drivers/STM32F0xx_HAL_Driver/Src/stm32f0xx_ll_rtc.c ****     assert_param(IS_LL_RTC_SECONDS(__LL_RTC_CONVERT_BCD2BIN(RTC_TimeStruct->Seconds)));
 310:Drivers/STM32F0xx_HAL_Driver/Src/stm32f0xx_ll_rtc.c ****   }
 311:Drivers/STM32F0xx_HAL_Driver/Src/stm32f0xx_ll_rtc.c **** 
 312:Drivers/STM32F0xx_HAL_Driver/Src/stm32f0xx_ll_rtc.c ****   /* Disable the write protection for RTC registers */
 313:Drivers/STM32F0xx_HAL_Driver/Src/stm32f0xx_ll_rtc.c ****   LL_RTC_DisableWriteProtection(RTCx);
 314:Drivers/STM32F0xx_HAL_Driver/Src/stm32f0xx_ll_rtc.c **** 
 315:Drivers/STM32F0xx_HAL_Driver/Src/stm32f0xx_ll_rtc.c ****   /* Set Initialization mode */
 316:Drivers/STM32F0xx_HAL_Driver/Src/stm32f0xx_ll_rtc.c ****   if (LL_RTC_EnterInitMode(RTCx) != ERROR)
 317:Drivers/STM32F0xx_HAL_Driver/Src/stm32f0xx_ll_rtc.c ****   {
 318:Drivers/STM32F0xx_HAL_Driver/Src/stm32f0xx_ll_rtc.c ****     /* Check the input parameters format */
 319:Drivers/STM32F0xx_HAL_Driver/Src/stm32f0xx_ll_rtc.c ****     if (RTC_Format != LL_RTC_FORMAT_BIN)
 320:Drivers/STM32F0xx_HAL_Driver/Src/stm32f0xx_ll_rtc.c ****     {
 321:Drivers/STM32F0xx_HAL_Driver/Src/stm32f0xx_ll_rtc.c ****       LL_RTC_TIME_Config(RTCx, RTC_TimeStruct->TimeFormat, RTC_TimeStruct->Hours,
 322:Drivers/STM32F0xx_HAL_Driver/Src/stm32f0xx_ll_rtc.c ****                          RTC_TimeStruct->Minutes, RTC_TimeStruct->Seconds);
 323:Drivers/STM32F0xx_HAL_Driver/Src/stm32f0xx_ll_rtc.c ****     }
 324:Drivers/STM32F0xx_HAL_Driver/Src/stm32f0xx_ll_rtc.c ****     else
 325:Drivers/STM32F0xx_HAL_Driver/Src/stm32f0xx_ll_rtc.c ****     {
 326:Drivers/STM32F0xx_HAL_Driver/Src/stm32f0xx_ll_rtc.c ****       LL_RTC_TIME_Config(RTCx, RTC_TimeStruct->TimeFormat, __LL_RTC_CONVERT_BIN2BCD(RTC_TimeStruct-
 327:Drivers/STM32F0xx_HAL_Driver/Src/stm32f0xx_ll_rtc.c ****                          __LL_RTC_CONVERT_BIN2BCD(RTC_TimeStruct->Minutes),
 328:Drivers/STM32F0xx_HAL_Driver/Src/stm32f0xx_ll_rtc.c ****                          __LL_RTC_CONVERT_BIN2BCD(RTC_TimeStruct->Seconds));
 329:Drivers/STM32F0xx_HAL_Driver/Src/stm32f0xx_ll_rtc.c ****     }
 330:Drivers/STM32F0xx_HAL_Driver/Src/stm32f0xx_ll_rtc.c **** 
 331:Drivers/STM32F0xx_HAL_Driver/Src/stm32f0xx_ll_rtc.c ****     /* Exit Initialization mode */
 332:Drivers/STM32F0xx_HAL_Driver/Src/stm32f0xx_ll_rtc.c ****     LL_RTC_DisableInitMode(RTC);
 333:Drivers/STM32F0xx_HAL_Driver/Src/stm32f0xx_ll_rtc.c **** 
 334:Drivers/STM32F0xx_HAL_Driver/Src/stm32f0xx_ll_rtc.c ****     /* If  RTC_CR_BYPSHAD bit = 0, wait for synchro else this check is not needed */
 335:Drivers/STM32F0xx_HAL_Driver/Src/stm32f0xx_ll_rtc.c ****     if (LL_RTC_IsShadowRegBypassEnabled(RTCx) == 0U)
 336:Drivers/STM32F0xx_HAL_Driver/Src/stm32f0xx_ll_rtc.c ****     {
 337:Drivers/STM32F0xx_HAL_Driver/Src/stm32f0xx_ll_rtc.c ****       status = LL_RTC_WaitForSynchro(RTCx);
 338:Drivers/STM32F0xx_HAL_Driver/Src/stm32f0xx_ll_rtc.c ****     }
 339:Drivers/STM32F0xx_HAL_Driver/Src/stm32f0xx_ll_rtc.c ****     else
 340:Drivers/STM32F0xx_HAL_Driver/Src/stm32f0xx_ll_rtc.c ****     {
 341:Drivers/STM32F0xx_HAL_Driver/Src/stm32f0xx_ll_rtc.c ****       status = SUCCESS;
 342:Drivers/STM32F0xx_HAL_Driver/Src/stm32f0xx_ll_rtc.c ****     }
 343:Drivers/STM32F0xx_HAL_Driver/Src/stm32f0xx_ll_rtc.c ****   }
 344:Drivers/STM32F0xx_HAL_Driver/Src/stm32f0xx_ll_rtc.c ****   /* Enable the write protection for RTC registers */
 345:Drivers/STM32F0xx_HAL_Driver/Src/stm32f0xx_ll_rtc.c ****   LL_RTC_EnableWriteProtection(RTCx);
 346:Drivers/STM32F0xx_HAL_Driver/Src/stm32f0xx_ll_rtc.c **** 
ARM GAS  C:\Users\strag\AppData\Local\Temp\ccM4RwII.s 			page 8


 347:Drivers/STM32F0xx_HAL_Driver/Src/stm32f0xx_ll_rtc.c ****   return status;
 348:Drivers/STM32F0xx_HAL_Driver/Src/stm32f0xx_ll_rtc.c **** }
 349:Drivers/STM32F0xx_HAL_Driver/Src/stm32f0xx_ll_rtc.c **** 
 350:Drivers/STM32F0xx_HAL_Driver/Src/stm32f0xx_ll_rtc.c **** /**
 351:Drivers/STM32F0xx_HAL_Driver/Src/stm32f0xx_ll_rtc.c ****   * @brief  Set each @ref LL_RTC_TimeTypeDef field to default value (Time = 00h:00min:00sec).
 352:Drivers/STM32F0xx_HAL_Driver/Src/stm32f0xx_ll_rtc.c ****   * @param  RTC_TimeStruct pointer to a @ref LL_RTC_TimeTypeDef structure which will be initialized
 353:Drivers/STM32F0xx_HAL_Driver/Src/stm32f0xx_ll_rtc.c ****   * @retval None
 354:Drivers/STM32F0xx_HAL_Driver/Src/stm32f0xx_ll_rtc.c ****   */
 355:Drivers/STM32F0xx_HAL_Driver/Src/stm32f0xx_ll_rtc.c **** void LL_RTC_TIME_StructInit(LL_RTC_TimeTypeDef *RTC_TimeStruct)
 356:Drivers/STM32F0xx_HAL_Driver/Src/stm32f0xx_ll_rtc.c **** {
  57              		.loc 1 356 0
  58              		.cfi_startproc
  59              		@ args = 0, pretend = 0, frame = 0
  60              		@ frame_needed = 0, uses_anonymous_args = 0
  61              		@ link register save eliminated.
  62              	.LVL1:
 357:Drivers/STM32F0xx_HAL_Driver/Src/stm32f0xx_ll_rtc.c ****   /* Time = 00h:00min:00sec */
 358:Drivers/STM32F0xx_HAL_Driver/Src/stm32f0xx_ll_rtc.c ****   RTC_TimeStruct->TimeFormat = LL_RTC_TIME_FORMAT_AM_OR_24;
  63              		.loc 1 358 0
  64 0000 0023     		movs	r3, #0
  65 0002 0360     		str	r3, [r0]
 359:Drivers/STM32F0xx_HAL_Driver/Src/stm32f0xx_ll_rtc.c ****   RTC_TimeStruct->Hours      = 0U;
  66              		.loc 1 359 0
  67 0004 0371     		strb	r3, [r0, #4]
 360:Drivers/STM32F0xx_HAL_Driver/Src/stm32f0xx_ll_rtc.c ****   RTC_TimeStruct->Minutes    = 0U;
  68              		.loc 1 360 0
  69 0006 4371     		strb	r3, [r0, #5]
 361:Drivers/STM32F0xx_HAL_Driver/Src/stm32f0xx_ll_rtc.c ****   RTC_TimeStruct->Seconds    = 0U;
  70              		.loc 1 361 0
  71 0008 8371     		strb	r3, [r0, #6]
 362:Drivers/STM32F0xx_HAL_Driver/Src/stm32f0xx_ll_rtc.c **** }
  72              		.loc 1 362 0
  73              		@ sp needed
  74 000a 7047     		bx	lr
  75              		.cfi_endproc
  76              	.LFE193:
  78              		.section	.text.LL_RTC_DATE_StructInit,"ax",%progbits
  79              		.align	2
  80              		.global	LL_RTC_DATE_StructInit
  81              		.code	16
  82              		.thumb_func
  84              	LL_RTC_DATE_StructInit:
  85              	.LFB195:
 363:Drivers/STM32F0xx_HAL_Driver/Src/stm32f0xx_ll_rtc.c **** 
 364:Drivers/STM32F0xx_HAL_Driver/Src/stm32f0xx_ll_rtc.c **** /**
 365:Drivers/STM32F0xx_HAL_Driver/Src/stm32f0xx_ll_rtc.c ****   * @brief  Set the RTC current date.
 366:Drivers/STM32F0xx_HAL_Driver/Src/stm32f0xx_ll_rtc.c ****   * @param  RTCx RTC Instance
 367:Drivers/STM32F0xx_HAL_Driver/Src/stm32f0xx_ll_rtc.c ****   * @param  RTC_Format This parameter can be one of the following values:
 368:Drivers/STM32F0xx_HAL_Driver/Src/stm32f0xx_ll_rtc.c ****   *         @arg @ref LL_RTC_FORMAT_BIN
 369:Drivers/STM32F0xx_HAL_Driver/Src/stm32f0xx_ll_rtc.c ****   *         @arg @ref LL_RTC_FORMAT_BCD
 370:Drivers/STM32F0xx_HAL_Driver/Src/stm32f0xx_ll_rtc.c ****   * @param  RTC_DateStruct pointer to a RTC_DateTypeDef structure that contains
 371:Drivers/STM32F0xx_HAL_Driver/Src/stm32f0xx_ll_rtc.c ****   *                         the date configuration information for the RTC.
 372:Drivers/STM32F0xx_HAL_Driver/Src/stm32f0xx_ll_rtc.c ****   * @retval An ErrorStatus enumeration value:
 373:Drivers/STM32F0xx_HAL_Driver/Src/stm32f0xx_ll_rtc.c ****   *          - SUCCESS: RTC Day register is configured
 374:Drivers/STM32F0xx_HAL_Driver/Src/stm32f0xx_ll_rtc.c ****   *          - ERROR: RTC Day register is not configured
 375:Drivers/STM32F0xx_HAL_Driver/Src/stm32f0xx_ll_rtc.c ****   */
 376:Drivers/STM32F0xx_HAL_Driver/Src/stm32f0xx_ll_rtc.c **** ErrorStatus LL_RTC_DATE_Init(RTC_TypeDef *RTCx, uint32_t RTC_Format, LL_RTC_DateTypeDef *RTC_DateSt
ARM GAS  C:\Users\strag\AppData\Local\Temp\ccM4RwII.s 			page 9


 377:Drivers/STM32F0xx_HAL_Driver/Src/stm32f0xx_ll_rtc.c **** {
 378:Drivers/STM32F0xx_HAL_Driver/Src/stm32f0xx_ll_rtc.c ****   ErrorStatus status = ERROR;
 379:Drivers/STM32F0xx_HAL_Driver/Src/stm32f0xx_ll_rtc.c **** 
 380:Drivers/STM32F0xx_HAL_Driver/Src/stm32f0xx_ll_rtc.c ****   /* Check the parameters */
 381:Drivers/STM32F0xx_HAL_Driver/Src/stm32f0xx_ll_rtc.c ****   assert_param(IS_RTC_ALL_INSTANCE(RTCx));
 382:Drivers/STM32F0xx_HAL_Driver/Src/stm32f0xx_ll_rtc.c ****   assert_param(IS_LL_RTC_FORMAT(RTC_Format));
 383:Drivers/STM32F0xx_HAL_Driver/Src/stm32f0xx_ll_rtc.c **** 
 384:Drivers/STM32F0xx_HAL_Driver/Src/stm32f0xx_ll_rtc.c ****   if ((RTC_Format == LL_RTC_FORMAT_BIN) && ((RTC_DateStruct->Month & 0x10U) == 0x10U))
 385:Drivers/STM32F0xx_HAL_Driver/Src/stm32f0xx_ll_rtc.c ****   {
 386:Drivers/STM32F0xx_HAL_Driver/Src/stm32f0xx_ll_rtc.c ****     RTC_DateStruct->Month = (RTC_DateStruct->Month & (uint32_t)~(0x10U)) + 0x0AU;
 387:Drivers/STM32F0xx_HAL_Driver/Src/stm32f0xx_ll_rtc.c ****   }
 388:Drivers/STM32F0xx_HAL_Driver/Src/stm32f0xx_ll_rtc.c ****   if (RTC_Format == LL_RTC_FORMAT_BIN)
 389:Drivers/STM32F0xx_HAL_Driver/Src/stm32f0xx_ll_rtc.c ****   {
 390:Drivers/STM32F0xx_HAL_Driver/Src/stm32f0xx_ll_rtc.c ****     assert_param(IS_LL_RTC_YEAR(RTC_DateStruct->Year));
 391:Drivers/STM32F0xx_HAL_Driver/Src/stm32f0xx_ll_rtc.c ****     assert_param(IS_LL_RTC_MONTH(RTC_DateStruct->Month));
 392:Drivers/STM32F0xx_HAL_Driver/Src/stm32f0xx_ll_rtc.c ****     assert_param(IS_LL_RTC_DAY(RTC_DateStruct->Day));
 393:Drivers/STM32F0xx_HAL_Driver/Src/stm32f0xx_ll_rtc.c ****   }
 394:Drivers/STM32F0xx_HAL_Driver/Src/stm32f0xx_ll_rtc.c ****   else
 395:Drivers/STM32F0xx_HAL_Driver/Src/stm32f0xx_ll_rtc.c ****   {
 396:Drivers/STM32F0xx_HAL_Driver/Src/stm32f0xx_ll_rtc.c ****     assert_param(IS_LL_RTC_YEAR(__LL_RTC_CONVERT_BCD2BIN(RTC_DateStruct->Year)));
 397:Drivers/STM32F0xx_HAL_Driver/Src/stm32f0xx_ll_rtc.c ****     assert_param(IS_LL_RTC_MONTH(__LL_RTC_CONVERT_BCD2BIN(RTC_DateStruct->Month)));
 398:Drivers/STM32F0xx_HAL_Driver/Src/stm32f0xx_ll_rtc.c ****     assert_param(IS_LL_RTC_DAY(__LL_RTC_CONVERT_BCD2BIN(RTC_DateStruct->Day)));
 399:Drivers/STM32F0xx_HAL_Driver/Src/stm32f0xx_ll_rtc.c ****   }
 400:Drivers/STM32F0xx_HAL_Driver/Src/stm32f0xx_ll_rtc.c ****   assert_param(IS_LL_RTC_WEEKDAY(RTC_DateStruct->WeekDay));
 401:Drivers/STM32F0xx_HAL_Driver/Src/stm32f0xx_ll_rtc.c **** 
 402:Drivers/STM32F0xx_HAL_Driver/Src/stm32f0xx_ll_rtc.c ****   /* Disable the write protection for RTC registers */
 403:Drivers/STM32F0xx_HAL_Driver/Src/stm32f0xx_ll_rtc.c ****   LL_RTC_DisableWriteProtection(RTCx);
 404:Drivers/STM32F0xx_HAL_Driver/Src/stm32f0xx_ll_rtc.c **** 
 405:Drivers/STM32F0xx_HAL_Driver/Src/stm32f0xx_ll_rtc.c ****   /* Set Initialization mode */
 406:Drivers/STM32F0xx_HAL_Driver/Src/stm32f0xx_ll_rtc.c ****   if (LL_RTC_EnterInitMode(RTCx) != ERROR)
 407:Drivers/STM32F0xx_HAL_Driver/Src/stm32f0xx_ll_rtc.c ****   {
 408:Drivers/STM32F0xx_HAL_Driver/Src/stm32f0xx_ll_rtc.c ****     /* Check the input parameters format */
 409:Drivers/STM32F0xx_HAL_Driver/Src/stm32f0xx_ll_rtc.c ****     if (RTC_Format != LL_RTC_FORMAT_BIN)
 410:Drivers/STM32F0xx_HAL_Driver/Src/stm32f0xx_ll_rtc.c ****     {
 411:Drivers/STM32F0xx_HAL_Driver/Src/stm32f0xx_ll_rtc.c ****       LL_RTC_DATE_Config(RTCx, RTC_DateStruct->WeekDay, RTC_DateStruct->Day, RTC_DateStruct->Month,
 412:Drivers/STM32F0xx_HAL_Driver/Src/stm32f0xx_ll_rtc.c ****     }
 413:Drivers/STM32F0xx_HAL_Driver/Src/stm32f0xx_ll_rtc.c ****     else
 414:Drivers/STM32F0xx_HAL_Driver/Src/stm32f0xx_ll_rtc.c ****     {
 415:Drivers/STM32F0xx_HAL_Driver/Src/stm32f0xx_ll_rtc.c ****       LL_RTC_DATE_Config(RTCx, RTC_DateStruct->WeekDay, __LL_RTC_CONVERT_BIN2BCD(RTC_DateStruct->Da
 416:Drivers/STM32F0xx_HAL_Driver/Src/stm32f0xx_ll_rtc.c ****                          __LL_RTC_CONVERT_BIN2BCD(RTC_DateStruct->Month), __LL_RTC_CONVERT_BIN2BCD(
 417:Drivers/STM32F0xx_HAL_Driver/Src/stm32f0xx_ll_rtc.c ****     }
 418:Drivers/STM32F0xx_HAL_Driver/Src/stm32f0xx_ll_rtc.c **** 
 419:Drivers/STM32F0xx_HAL_Driver/Src/stm32f0xx_ll_rtc.c ****     /* Exit Initialization mode */
 420:Drivers/STM32F0xx_HAL_Driver/Src/stm32f0xx_ll_rtc.c ****     LL_RTC_DisableInitMode(RTC);
 421:Drivers/STM32F0xx_HAL_Driver/Src/stm32f0xx_ll_rtc.c **** 
 422:Drivers/STM32F0xx_HAL_Driver/Src/stm32f0xx_ll_rtc.c ****     /* If  RTC_CR_BYPSHAD bit = 0, wait for synchro else this check is not needed */
 423:Drivers/STM32F0xx_HAL_Driver/Src/stm32f0xx_ll_rtc.c ****     if (LL_RTC_IsShadowRegBypassEnabled(RTCx) == 0U)
 424:Drivers/STM32F0xx_HAL_Driver/Src/stm32f0xx_ll_rtc.c ****     {
 425:Drivers/STM32F0xx_HAL_Driver/Src/stm32f0xx_ll_rtc.c ****       status = LL_RTC_WaitForSynchro(RTCx);
 426:Drivers/STM32F0xx_HAL_Driver/Src/stm32f0xx_ll_rtc.c ****     }
 427:Drivers/STM32F0xx_HAL_Driver/Src/stm32f0xx_ll_rtc.c ****     else
 428:Drivers/STM32F0xx_HAL_Driver/Src/stm32f0xx_ll_rtc.c ****     {
 429:Drivers/STM32F0xx_HAL_Driver/Src/stm32f0xx_ll_rtc.c ****       status = SUCCESS;
 430:Drivers/STM32F0xx_HAL_Driver/Src/stm32f0xx_ll_rtc.c ****     }
 431:Drivers/STM32F0xx_HAL_Driver/Src/stm32f0xx_ll_rtc.c ****   }
 432:Drivers/STM32F0xx_HAL_Driver/Src/stm32f0xx_ll_rtc.c ****   /* Enable the write protection for RTC registers */
 433:Drivers/STM32F0xx_HAL_Driver/Src/stm32f0xx_ll_rtc.c ****   LL_RTC_EnableWriteProtection(RTCx);
ARM GAS  C:\Users\strag\AppData\Local\Temp\ccM4RwII.s 			page 10


 434:Drivers/STM32F0xx_HAL_Driver/Src/stm32f0xx_ll_rtc.c **** 
 435:Drivers/STM32F0xx_HAL_Driver/Src/stm32f0xx_ll_rtc.c ****   return status;
 436:Drivers/STM32F0xx_HAL_Driver/Src/stm32f0xx_ll_rtc.c **** }
 437:Drivers/STM32F0xx_HAL_Driver/Src/stm32f0xx_ll_rtc.c **** 
 438:Drivers/STM32F0xx_HAL_Driver/Src/stm32f0xx_ll_rtc.c **** /**
 439:Drivers/STM32F0xx_HAL_Driver/Src/stm32f0xx_ll_rtc.c ****   * @brief  Set each @ref LL_RTC_DateTypeDef field to default value (date = Monday, January 01 xx00
 440:Drivers/STM32F0xx_HAL_Driver/Src/stm32f0xx_ll_rtc.c ****   * @param  RTC_DateStruct pointer to a @ref LL_RTC_DateTypeDef structure which will be initialized
 441:Drivers/STM32F0xx_HAL_Driver/Src/stm32f0xx_ll_rtc.c ****   * @retval None
 442:Drivers/STM32F0xx_HAL_Driver/Src/stm32f0xx_ll_rtc.c ****   */
 443:Drivers/STM32F0xx_HAL_Driver/Src/stm32f0xx_ll_rtc.c **** void LL_RTC_DATE_StructInit(LL_RTC_DateTypeDef *RTC_DateStruct)
 444:Drivers/STM32F0xx_HAL_Driver/Src/stm32f0xx_ll_rtc.c **** {
  86              		.loc 1 444 0
  87              		.cfi_startproc
  88              		@ args = 0, pretend = 0, frame = 0
  89              		@ frame_needed = 0, uses_anonymous_args = 0
  90              		@ link register save eliminated.
  91              	.LVL2:
 445:Drivers/STM32F0xx_HAL_Driver/Src/stm32f0xx_ll_rtc.c ****   /* Monday, January 01 xx00 */
 446:Drivers/STM32F0xx_HAL_Driver/Src/stm32f0xx_ll_rtc.c ****   RTC_DateStruct->WeekDay = LL_RTC_WEEKDAY_MONDAY;
  92              		.loc 1 446 0
  93 0000 0123     		movs	r3, #1
  94 0002 0370     		strb	r3, [r0]
 447:Drivers/STM32F0xx_HAL_Driver/Src/stm32f0xx_ll_rtc.c ****   RTC_DateStruct->Day     = 1U;
  95              		.loc 1 447 0
  96 0004 8370     		strb	r3, [r0, #2]
 448:Drivers/STM32F0xx_HAL_Driver/Src/stm32f0xx_ll_rtc.c ****   RTC_DateStruct->Month   = LL_RTC_MONTH_JANUARY;
  97              		.loc 1 448 0
  98 0006 4370     		strb	r3, [r0, #1]
 449:Drivers/STM32F0xx_HAL_Driver/Src/stm32f0xx_ll_rtc.c ****   RTC_DateStruct->Year    = 0U;
  99              		.loc 1 449 0
 100 0008 0023     		movs	r3, #0
 101 000a C370     		strb	r3, [r0, #3]
 450:Drivers/STM32F0xx_HAL_Driver/Src/stm32f0xx_ll_rtc.c **** }
 102              		.loc 1 450 0
 103              		@ sp needed
 104 000c 7047     		bx	lr
 105              		.cfi_endproc
 106              	.LFE195:
 108              		.global	__aeabi_uidiv
 109              		.global	__aeabi_uidivmod
 110 000e C046     		.section	.text.LL_RTC_ALMA_Init,"ax",%progbits
 111              		.align	2
 112              		.global	LL_RTC_ALMA_Init
 113              		.code	16
 114              		.thumb_func
 116              	LL_RTC_ALMA_Init:
 117              	.LFB196:
 451:Drivers/STM32F0xx_HAL_Driver/Src/stm32f0xx_ll_rtc.c **** 
 452:Drivers/STM32F0xx_HAL_Driver/Src/stm32f0xx_ll_rtc.c **** /**
 453:Drivers/STM32F0xx_HAL_Driver/Src/stm32f0xx_ll_rtc.c ****   * @brief  Set the RTC Alarm A.
 454:Drivers/STM32F0xx_HAL_Driver/Src/stm32f0xx_ll_rtc.c ****   * @note   The Alarm register can only be written when the corresponding Alarm
 455:Drivers/STM32F0xx_HAL_Driver/Src/stm32f0xx_ll_rtc.c ****   *         is disabled (Use @ref LL_RTC_ALMA_Disable function).
 456:Drivers/STM32F0xx_HAL_Driver/Src/stm32f0xx_ll_rtc.c ****   * @param  RTCx RTC Instance
 457:Drivers/STM32F0xx_HAL_Driver/Src/stm32f0xx_ll_rtc.c ****   * @param  RTC_Format This parameter can be one of the following values:
 458:Drivers/STM32F0xx_HAL_Driver/Src/stm32f0xx_ll_rtc.c ****   *         @arg @ref LL_RTC_FORMAT_BIN
 459:Drivers/STM32F0xx_HAL_Driver/Src/stm32f0xx_ll_rtc.c ****   *         @arg @ref LL_RTC_FORMAT_BCD
 460:Drivers/STM32F0xx_HAL_Driver/Src/stm32f0xx_ll_rtc.c ****   * @param  RTC_AlarmStruct pointer to a @ref LL_RTC_AlarmTypeDef structure that
ARM GAS  C:\Users\strag\AppData\Local\Temp\ccM4RwII.s 			page 11


 461:Drivers/STM32F0xx_HAL_Driver/Src/stm32f0xx_ll_rtc.c ****   *                         contains the alarm configuration parameters.
 462:Drivers/STM32F0xx_HAL_Driver/Src/stm32f0xx_ll_rtc.c ****   * @retval An ErrorStatus enumeration value:
 463:Drivers/STM32F0xx_HAL_Driver/Src/stm32f0xx_ll_rtc.c ****   *          - SUCCESS: ALARMA registers are configured
 464:Drivers/STM32F0xx_HAL_Driver/Src/stm32f0xx_ll_rtc.c ****   *          - ERROR: ALARMA registers are not configured
 465:Drivers/STM32F0xx_HAL_Driver/Src/stm32f0xx_ll_rtc.c ****   */
 466:Drivers/STM32F0xx_HAL_Driver/Src/stm32f0xx_ll_rtc.c **** ErrorStatus LL_RTC_ALMA_Init(RTC_TypeDef *RTCx, uint32_t RTC_Format, LL_RTC_AlarmTypeDef *RTC_Alarm
 467:Drivers/STM32F0xx_HAL_Driver/Src/stm32f0xx_ll_rtc.c **** {
 118              		.loc 1 467 0
 119              		.cfi_startproc
 120              		@ args = 0, pretend = 0, frame = 0
 121              		@ frame_needed = 0, uses_anonymous_args = 0
 122              	.LVL3:
 123 0000 F0B5     		push	{r4, r5, r6, r7, lr}
 124              	.LCFI0:
 125              		.cfi_def_cfa_offset 20
 126              		.cfi_offset 4, -20
 127              		.cfi_offset 5, -16
 128              		.cfi_offset 6, -12
 129              		.cfi_offset 7, -8
 130              		.cfi_offset 14, -4
 131 0002 5746     		mov	r7, r10
 132 0004 4E46     		mov	r6, r9
 133 0006 4546     		mov	r5, r8
 134 0008 E0B4     		push	{r5, r6, r7}
 135              	.LCFI1:
 136              		.cfi_def_cfa_offset 32
 137              		.cfi_offset 8, -32
 138              		.cfi_offset 9, -28
 139              		.cfi_offset 10, -24
 140 000a 0400     		movs	r4, r0
 141 000c 0E00     		movs	r6, r1
 142 000e 1500     		movs	r5, r2
 468:Drivers/STM32F0xx_HAL_Driver/Src/stm32f0xx_ll_rtc.c ****   /* Check the parameters */
 469:Drivers/STM32F0xx_HAL_Driver/Src/stm32f0xx_ll_rtc.c ****   assert_param(IS_RTC_ALL_INSTANCE(RTCx));
 470:Drivers/STM32F0xx_HAL_Driver/Src/stm32f0xx_ll_rtc.c ****   assert_param(IS_LL_RTC_FORMAT(RTC_Format));
 471:Drivers/STM32F0xx_HAL_Driver/Src/stm32f0xx_ll_rtc.c ****   assert_param(IS_LL_RTC_ALMA_MASK(RTC_AlarmStruct->AlarmMask));
 472:Drivers/STM32F0xx_HAL_Driver/Src/stm32f0xx_ll_rtc.c ****   assert_param(IS_LL_RTC_ALMA_DATE_WEEKDAY_SEL(RTC_AlarmStruct->AlarmDateWeekDaySel));
 473:Drivers/STM32F0xx_HAL_Driver/Src/stm32f0xx_ll_rtc.c **** 
 474:Drivers/STM32F0xx_HAL_Driver/Src/stm32f0xx_ll_rtc.c ****   if (RTC_Format == LL_RTC_FORMAT_BIN)
 143              		.loc 1 474 0
 144 0010 0029     		cmp	r1, #0
 145 0012 05D1     		bne	.L5
 146              	.LVL4:
 147              	.LBB96:
 148              	.LBB97:
 149              		.file 2 "Drivers/STM32F0xx_HAL_Driver/Inc/stm32f0xx_ll_rtc.h"
   1:Drivers/STM32F0xx_HAL_Driver/Inc/stm32f0xx_ll_rtc.h **** /**
   2:Drivers/STM32F0xx_HAL_Driver/Inc/stm32f0xx_ll_rtc.h ****   ******************************************************************************
   3:Drivers/STM32F0xx_HAL_Driver/Inc/stm32f0xx_ll_rtc.h ****   * @file    stm32f0xx_ll_rtc.h
   4:Drivers/STM32F0xx_HAL_Driver/Inc/stm32f0xx_ll_rtc.h ****   * @author  MCD Application Team
   5:Drivers/STM32F0xx_HAL_Driver/Inc/stm32f0xx_ll_rtc.h ****   * @brief   Header file of RTC LL module.
   6:Drivers/STM32F0xx_HAL_Driver/Inc/stm32f0xx_ll_rtc.h ****   ******************************************************************************
   7:Drivers/STM32F0xx_HAL_Driver/Inc/stm32f0xx_ll_rtc.h ****   * @attention
   8:Drivers/STM32F0xx_HAL_Driver/Inc/stm32f0xx_ll_rtc.h ****   *
   9:Drivers/STM32F0xx_HAL_Driver/Inc/stm32f0xx_ll_rtc.h ****   * <h2><center>&copy; COPYRIGHT(c) 2016 STMicroelectronics</center></h2>
  10:Drivers/STM32F0xx_HAL_Driver/Inc/stm32f0xx_ll_rtc.h ****   *
  11:Drivers/STM32F0xx_HAL_Driver/Inc/stm32f0xx_ll_rtc.h ****   * Redistribution and use in source and binary forms, with or without modification,
ARM GAS  C:\Users\strag\AppData\Local\Temp\ccM4RwII.s 			page 12


  12:Drivers/STM32F0xx_HAL_Driver/Inc/stm32f0xx_ll_rtc.h ****   * are permitted provided that the following conditions are met:
  13:Drivers/STM32F0xx_HAL_Driver/Inc/stm32f0xx_ll_rtc.h ****   *   1. Redistributions of source code must retain the above copyright notice,
  14:Drivers/STM32F0xx_HAL_Driver/Inc/stm32f0xx_ll_rtc.h ****   *      this list of conditions and the following disclaimer.
  15:Drivers/STM32F0xx_HAL_Driver/Inc/stm32f0xx_ll_rtc.h ****   *   2. Redistributions in binary form must reproduce the above copyright notice,
  16:Drivers/STM32F0xx_HAL_Driver/Inc/stm32f0xx_ll_rtc.h ****   *      this list of conditions and the following disclaimer in the documentation
  17:Drivers/STM32F0xx_HAL_Driver/Inc/stm32f0xx_ll_rtc.h ****   *      and/or other materials provided with the distribution.
  18:Drivers/STM32F0xx_HAL_Driver/Inc/stm32f0xx_ll_rtc.h ****   *   3. Neither the name of STMicroelectronics nor the names of its contributors
  19:Drivers/STM32F0xx_HAL_Driver/Inc/stm32f0xx_ll_rtc.h ****   *      may be used to endorse or promote products derived from this software
  20:Drivers/STM32F0xx_HAL_Driver/Inc/stm32f0xx_ll_rtc.h ****   *      without specific prior written permission.
  21:Drivers/STM32F0xx_HAL_Driver/Inc/stm32f0xx_ll_rtc.h ****   *
  22:Drivers/STM32F0xx_HAL_Driver/Inc/stm32f0xx_ll_rtc.h ****   * THIS SOFTWARE IS PROVIDED BY THE COPYRIGHT HOLDERS AND CONTRIBUTORS "AS IS"
  23:Drivers/STM32F0xx_HAL_Driver/Inc/stm32f0xx_ll_rtc.h ****   * AND ANY EXPRESS OR IMPLIED WARRANTIES, INCLUDING, BUT NOT LIMITED TO, THE
  24:Drivers/STM32F0xx_HAL_Driver/Inc/stm32f0xx_ll_rtc.h ****   * IMPLIED WARRANTIES OF MERCHANTABILITY AND FITNESS FOR A PARTICULAR PURPOSE ARE
  25:Drivers/STM32F0xx_HAL_Driver/Inc/stm32f0xx_ll_rtc.h ****   * DISCLAIMED. IN NO EVENT SHALL THE COPYRIGHT HOLDER OR CONTRIBUTORS BE LIABLE
  26:Drivers/STM32F0xx_HAL_Driver/Inc/stm32f0xx_ll_rtc.h ****   * FOR ANY DIRECT, INDIRECT, INCIDENTAL, SPECIAL, EXEMPLARY, OR CONSEQUENTIAL
  27:Drivers/STM32F0xx_HAL_Driver/Inc/stm32f0xx_ll_rtc.h ****   * DAMAGES (INCLUDING, BUT NOT LIMITED TO, PROCUREMENT OF SUBSTITUTE GOODS OR
  28:Drivers/STM32F0xx_HAL_Driver/Inc/stm32f0xx_ll_rtc.h ****   * SERVICES; LOSS OF USE, DATA, OR PROFITS; OR BUSINESS INTERRUPTION) HOWEVER
  29:Drivers/STM32F0xx_HAL_Driver/Inc/stm32f0xx_ll_rtc.h ****   * CAUSED AND ON ANY THEORY OF LIABILITY, WHETHER IN CONTRACT, STRICT LIABILITY,
  30:Drivers/STM32F0xx_HAL_Driver/Inc/stm32f0xx_ll_rtc.h ****   * OR TORT (INCLUDING NEGLIGENCE OR OTHERWISE) ARISING IN ANY WAY OUT OF THE USE
  31:Drivers/STM32F0xx_HAL_Driver/Inc/stm32f0xx_ll_rtc.h ****   * OF THIS SOFTWARE, EVEN IF ADVISED OF THE POSSIBILITY OF SUCH DAMAGE.
  32:Drivers/STM32F0xx_HAL_Driver/Inc/stm32f0xx_ll_rtc.h ****   *
  33:Drivers/STM32F0xx_HAL_Driver/Inc/stm32f0xx_ll_rtc.h ****   ******************************************************************************
  34:Drivers/STM32F0xx_HAL_Driver/Inc/stm32f0xx_ll_rtc.h ****   */
  35:Drivers/STM32F0xx_HAL_Driver/Inc/stm32f0xx_ll_rtc.h **** 
  36:Drivers/STM32F0xx_HAL_Driver/Inc/stm32f0xx_ll_rtc.h **** /* Define to prevent recursive inclusion -------------------------------------*/
  37:Drivers/STM32F0xx_HAL_Driver/Inc/stm32f0xx_ll_rtc.h **** #ifndef __STM32F0xx_LL_RTC_H
  38:Drivers/STM32F0xx_HAL_Driver/Inc/stm32f0xx_ll_rtc.h **** #define __STM32F0xx_LL_RTC_H
  39:Drivers/STM32F0xx_HAL_Driver/Inc/stm32f0xx_ll_rtc.h **** 
  40:Drivers/STM32F0xx_HAL_Driver/Inc/stm32f0xx_ll_rtc.h **** #ifdef __cplusplus
  41:Drivers/STM32F0xx_HAL_Driver/Inc/stm32f0xx_ll_rtc.h **** extern "C" {
  42:Drivers/STM32F0xx_HAL_Driver/Inc/stm32f0xx_ll_rtc.h **** #endif
  43:Drivers/STM32F0xx_HAL_Driver/Inc/stm32f0xx_ll_rtc.h **** 
  44:Drivers/STM32F0xx_HAL_Driver/Inc/stm32f0xx_ll_rtc.h **** /* Includes ------------------------------------------------------------------*/
  45:Drivers/STM32F0xx_HAL_Driver/Inc/stm32f0xx_ll_rtc.h **** #include "stm32f0xx.h"
  46:Drivers/STM32F0xx_HAL_Driver/Inc/stm32f0xx_ll_rtc.h **** 
  47:Drivers/STM32F0xx_HAL_Driver/Inc/stm32f0xx_ll_rtc.h **** /** @addtogroup STM32F0xx_LL_Driver
  48:Drivers/STM32F0xx_HAL_Driver/Inc/stm32f0xx_ll_rtc.h ****   * @{
  49:Drivers/STM32F0xx_HAL_Driver/Inc/stm32f0xx_ll_rtc.h ****   */
  50:Drivers/STM32F0xx_HAL_Driver/Inc/stm32f0xx_ll_rtc.h **** 
  51:Drivers/STM32F0xx_HAL_Driver/Inc/stm32f0xx_ll_rtc.h **** #if defined(RTC)
  52:Drivers/STM32F0xx_HAL_Driver/Inc/stm32f0xx_ll_rtc.h **** 
  53:Drivers/STM32F0xx_HAL_Driver/Inc/stm32f0xx_ll_rtc.h **** /** @defgroup RTC_LL RTC
  54:Drivers/STM32F0xx_HAL_Driver/Inc/stm32f0xx_ll_rtc.h ****   * @{
  55:Drivers/STM32F0xx_HAL_Driver/Inc/stm32f0xx_ll_rtc.h ****   */
  56:Drivers/STM32F0xx_HAL_Driver/Inc/stm32f0xx_ll_rtc.h **** 
  57:Drivers/STM32F0xx_HAL_Driver/Inc/stm32f0xx_ll_rtc.h **** /* Private types -------------------------------------------------------------*/
  58:Drivers/STM32F0xx_HAL_Driver/Inc/stm32f0xx_ll_rtc.h **** /* Private variables ---------------------------------------------------------*/
  59:Drivers/STM32F0xx_HAL_Driver/Inc/stm32f0xx_ll_rtc.h **** /* Private constants ---------------------------------------------------------*/
  60:Drivers/STM32F0xx_HAL_Driver/Inc/stm32f0xx_ll_rtc.h **** /** @defgroup RTC_LL_Private_Constants RTC Private Constants
  61:Drivers/STM32F0xx_HAL_Driver/Inc/stm32f0xx_ll_rtc.h ****   * @{
  62:Drivers/STM32F0xx_HAL_Driver/Inc/stm32f0xx_ll_rtc.h ****   */
  63:Drivers/STM32F0xx_HAL_Driver/Inc/stm32f0xx_ll_rtc.h **** /* Masks Definition */
  64:Drivers/STM32F0xx_HAL_Driver/Inc/stm32f0xx_ll_rtc.h **** #define RTC_INIT_MASK                 0xFFFFFFFFU
  65:Drivers/STM32F0xx_HAL_Driver/Inc/stm32f0xx_ll_rtc.h **** #define RTC_RSF_MASK                  0xFFFFFF5FU
  66:Drivers/STM32F0xx_HAL_Driver/Inc/stm32f0xx_ll_rtc.h **** 
  67:Drivers/STM32F0xx_HAL_Driver/Inc/stm32f0xx_ll_rtc.h **** /* Write protection defines */
  68:Drivers/STM32F0xx_HAL_Driver/Inc/stm32f0xx_ll_rtc.h **** #define RTC_WRITE_PROTECTION_DISABLE  ((uint8_t)0xFFU)
ARM GAS  C:\Users\strag\AppData\Local\Temp\ccM4RwII.s 			page 13


  69:Drivers/STM32F0xx_HAL_Driver/Inc/stm32f0xx_ll_rtc.h **** #define RTC_WRITE_PROTECTION_ENABLE_1 ((uint8_t)0xCAU)
  70:Drivers/STM32F0xx_HAL_Driver/Inc/stm32f0xx_ll_rtc.h **** #define RTC_WRITE_PROTECTION_ENABLE_2 ((uint8_t)0x53U)
  71:Drivers/STM32F0xx_HAL_Driver/Inc/stm32f0xx_ll_rtc.h **** 
  72:Drivers/STM32F0xx_HAL_Driver/Inc/stm32f0xx_ll_rtc.h **** /* Defines used to combine date & time */
  73:Drivers/STM32F0xx_HAL_Driver/Inc/stm32f0xx_ll_rtc.h **** #define RTC_OFFSET_WEEKDAY            24U
  74:Drivers/STM32F0xx_HAL_Driver/Inc/stm32f0xx_ll_rtc.h **** #define RTC_OFFSET_DAY                16U
  75:Drivers/STM32F0xx_HAL_Driver/Inc/stm32f0xx_ll_rtc.h **** #define RTC_OFFSET_MONTH              8U
  76:Drivers/STM32F0xx_HAL_Driver/Inc/stm32f0xx_ll_rtc.h **** #define RTC_OFFSET_HOUR               16U
  77:Drivers/STM32F0xx_HAL_Driver/Inc/stm32f0xx_ll_rtc.h **** #define RTC_OFFSET_MINUTE             8U
  78:Drivers/STM32F0xx_HAL_Driver/Inc/stm32f0xx_ll_rtc.h **** 
  79:Drivers/STM32F0xx_HAL_Driver/Inc/stm32f0xx_ll_rtc.h **** /**
  80:Drivers/STM32F0xx_HAL_Driver/Inc/stm32f0xx_ll_rtc.h ****   * @}
  81:Drivers/STM32F0xx_HAL_Driver/Inc/stm32f0xx_ll_rtc.h ****   */
  82:Drivers/STM32F0xx_HAL_Driver/Inc/stm32f0xx_ll_rtc.h **** 
  83:Drivers/STM32F0xx_HAL_Driver/Inc/stm32f0xx_ll_rtc.h **** /* Private macros ------------------------------------------------------------*/
  84:Drivers/STM32F0xx_HAL_Driver/Inc/stm32f0xx_ll_rtc.h **** #if defined(USE_FULL_LL_DRIVER)
  85:Drivers/STM32F0xx_HAL_Driver/Inc/stm32f0xx_ll_rtc.h **** /** @defgroup RTC_LL_Private_Macros RTC Private Macros
  86:Drivers/STM32F0xx_HAL_Driver/Inc/stm32f0xx_ll_rtc.h ****   * @{
  87:Drivers/STM32F0xx_HAL_Driver/Inc/stm32f0xx_ll_rtc.h ****   */
  88:Drivers/STM32F0xx_HAL_Driver/Inc/stm32f0xx_ll_rtc.h **** /**
  89:Drivers/STM32F0xx_HAL_Driver/Inc/stm32f0xx_ll_rtc.h ****   * @}
  90:Drivers/STM32F0xx_HAL_Driver/Inc/stm32f0xx_ll_rtc.h ****   */
  91:Drivers/STM32F0xx_HAL_Driver/Inc/stm32f0xx_ll_rtc.h **** #endif /*USE_FULL_LL_DRIVER*/
  92:Drivers/STM32F0xx_HAL_Driver/Inc/stm32f0xx_ll_rtc.h **** 
  93:Drivers/STM32F0xx_HAL_Driver/Inc/stm32f0xx_ll_rtc.h **** /* Exported types ------------------------------------------------------------*/
  94:Drivers/STM32F0xx_HAL_Driver/Inc/stm32f0xx_ll_rtc.h **** #if defined(USE_FULL_LL_DRIVER)
  95:Drivers/STM32F0xx_HAL_Driver/Inc/stm32f0xx_ll_rtc.h **** /** @defgroup RTC_LL_ES_INIT RTC Exported Init structure
  96:Drivers/STM32F0xx_HAL_Driver/Inc/stm32f0xx_ll_rtc.h ****   * @{
  97:Drivers/STM32F0xx_HAL_Driver/Inc/stm32f0xx_ll_rtc.h ****   */
  98:Drivers/STM32F0xx_HAL_Driver/Inc/stm32f0xx_ll_rtc.h **** 
  99:Drivers/STM32F0xx_HAL_Driver/Inc/stm32f0xx_ll_rtc.h **** /**
 100:Drivers/STM32F0xx_HAL_Driver/Inc/stm32f0xx_ll_rtc.h ****   * @brief  RTC Init structures definition
 101:Drivers/STM32F0xx_HAL_Driver/Inc/stm32f0xx_ll_rtc.h ****   */
 102:Drivers/STM32F0xx_HAL_Driver/Inc/stm32f0xx_ll_rtc.h **** typedef struct
 103:Drivers/STM32F0xx_HAL_Driver/Inc/stm32f0xx_ll_rtc.h **** {
 104:Drivers/STM32F0xx_HAL_Driver/Inc/stm32f0xx_ll_rtc.h ****   uint32_t HourFormat;   /*!< Specifies the RTC Hours Format.
 105:Drivers/STM32F0xx_HAL_Driver/Inc/stm32f0xx_ll_rtc.h ****                               This parameter can be a value of @ref RTC_LL_EC_HOURFORMAT
 106:Drivers/STM32F0xx_HAL_Driver/Inc/stm32f0xx_ll_rtc.h ****                               
 107:Drivers/STM32F0xx_HAL_Driver/Inc/stm32f0xx_ll_rtc.h ****                               This feature can be modified afterwards using unitary function
 108:Drivers/STM32F0xx_HAL_Driver/Inc/stm32f0xx_ll_rtc.h ****                               @ref LL_RTC_SetHourFormat(). */
 109:Drivers/STM32F0xx_HAL_Driver/Inc/stm32f0xx_ll_rtc.h **** 
 110:Drivers/STM32F0xx_HAL_Driver/Inc/stm32f0xx_ll_rtc.h ****   uint32_t AsynchPrescaler; /*!< Specifies the RTC Asynchronous Predivider value.
 111:Drivers/STM32F0xx_HAL_Driver/Inc/stm32f0xx_ll_rtc.h ****                               This parameter must be a number between Min_Data = 0x00 and Max_Data 
 112:Drivers/STM32F0xx_HAL_Driver/Inc/stm32f0xx_ll_rtc.h ****                               
 113:Drivers/STM32F0xx_HAL_Driver/Inc/stm32f0xx_ll_rtc.h ****                               This feature can be modified afterwards using unitary function
 114:Drivers/STM32F0xx_HAL_Driver/Inc/stm32f0xx_ll_rtc.h ****                               @ref LL_RTC_SetAsynchPrescaler(). */
 115:Drivers/STM32F0xx_HAL_Driver/Inc/stm32f0xx_ll_rtc.h **** 
 116:Drivers/STM32F0xx_HAL_Driver/Inc/stm32f0xx_ll_rtc.h ****   uint32_t SynchPrescaler;  /*!< Specifies the RTC Synchronous Predivider value.
 117:Drivers/STM32F0xx_HAL_Driver/Inc/stm32f0xx_ll_rtc.h ****                               This parameter must be a number between Min_Data = 0x00 and Max_Data 
 118:Drivers/STM32F0xx_HAL_Driver/Inc/stm32f0xx_ll_rtc.h ****                               
 119:Drivers/STM32F0xx_HAL_Driver/Inc/stm32f0xx_ll_rtc.h ****                               This feature can be modified afterwards using unitary function
 120:Drivers/STM32F0xx_HAL_Driver/Inc/stm32f0xx_ll_rtc.h ****                               @ref LL_RTC_SetSynchPrescaler(). */
 121:Drivers/STM32F0xx_HAL_Driver/Inc/stm32f0xx_ll_rtc.h **** } LL_RTC_InitTypeDef;
 122:Drivers/STM32F0xx_HAL_Driver/Inc/stm32f0xx_ll_rtc.h **** 
 123:Drivers/STM32F0xx_HAL_Driver/Inc/stm32f0xx_ll_rtc.h **** /**
 124:Drivers/STM32F0xx_HAL_Driver/Inc/stm32f0xx_ll_rtc.h ****   * @brief  RTC Time structure definition
 125:Drivers/STM32F0xx_HAL_Driver/Inc/stm32f0xx_ll_rtc.h ****   */
ARM GAS  C:\Users\strag\AppData\Local\Temp\ccM4RwII.s 			page 14


 126:Drivers/STM32F0xx_HAL_Driver/Inc/stm32f0xx_ll_rtc.h **** typedef struct
 127:Drivers/STM32F0xx_HAL_Driver/Inc/stm32f0xx_ll_rtc.h **** {
 128:Drivers/STM32F0xx_HAL_Driver/Inc/stm32f0xx_ll_rtc.h ****   uint32_t TimeFormat; /*!< Specifies the RTC AM/PM Time.
 129:Drivers/STM32F0xx_HAL_Driver/Inc/stm32f0xx_ll_rtc.h ****                             This parameter can be a value of @ref RTC_LL_EC_TIME_FORMAT
 130:Drivers/STM32F0xx_HAL_Driver/Inc/stm32f0xx_ll_rtc.h **** 
 131:Drivers/STM32F0xx_HAL_Driver/Inc/stm32f0xx_ll_rtc.h ****                             This feature can be modified afterwards using unitary function @ref LL_
 132:Drivers/STM32F0xx_HAL_Driver/Inc/stm32f0xx_ll_rtc.h **** 
 133:Drivers/STM32F0xx_HAL_Driver/Inc/stm32f0xx_ll_rtc.h ****   uint8_t Hours;       /*!< Specifies the RTC Time Hours.
 134:Drivers/STM32F0xx_HAL_Driver/Inc/stm32f0xx_ll_rtc.h ****                             This parameter must be a number between Min_Data = 0 and Max_Data = 12 
 135:Drivers/STM32F0xx_HAL_Driver/Inc/stm32f0xx_ll_rtc.h ****                             This parameter must be a number between Min_Data = 0 and Max_Data = 23 
 136:Drivers/STM32F0xx_HAL_Driver/Inc/stm32f0xx_ll_rtc.h **** 
 137:Drivers/STM32F0xx_HAL_Driver/Inc/stm32f0xx_ll_rtc.h ****                             This feature can be modified afterwards using unitary function @ref LL_
 138:Drivers/STM32F0xx_HAL_Driver/Inc/stm32f0xx_ll_rtc.h **** 
 139:Drivers/STM32F0xx_HAL_Driver/Inc/stm32f0xx_ll_rtc.h ****   uint8_t Minutes;     /*!< Specifies the RTC Time Minutes.
 140:Drivers/STM32F0xx_HAL_Driver/Inc/stm32f0xx_ll_rtc.h ****                             This parameter must be a number between Min_Data = 0 and Max_Data = 59
 141:Drivers/STM32F0xx_HAL_Driver/Inc/stm32f0xx_ll_rtc.h **** 
 142:Drivers/STM32F0xx_HAL_Driver/Inc/stm32f0xx_ll_rtc.h ****                             This feature can be modified afterwards using unitary function @ref LL_
 143:Drivers/STM32F0xx_HAL_Driver/Inc/stm32f0xx_ll_rtc.h **** 
 144:Drivers/STM32F0xx_HAL_Driver/Inc/stm32f0xx_ll_rtc.h ****   uint8_t Seconds;     /*!< Specifies the RTC Time Seconds.
 145:Drivers/STM32F0xx_HAL_Driver/Inc/stm32f0xx_ll_rtc.h ****                             This parameter must be a number between Min_Data = 0 and Max_Data = 59
 146:Drivers/STM32F0xx_HAL_Driver/Inc/stm32f0xx_ll_rtc.h **** 
 147:Drivers/STM32F0xx_HAL_Driver/Inc/stm32f0xx_ll_rtc.h ****                             This feature can be modified afterwards using unitary function @ref LL_
 148:Drivers/STM32F0xx_HAL_Driver/Inc/stm32f0xx_ll_rtc.h **** } LL_RTC_TimeTypeDef;
 149:Drivers/STM32F0xx_HAL_Driver/Inc/stm32f0xx_ll_rtc.h **** 
 150:Drivers/STM32F0xx_HAL_Driver/Inc/stm32f0xx_ll_rtc.h **** /**
 151:Drivers/STM32F0xx_HAL_Driver/Inc/stm32f0xx_ll_rtc.h ****   * @brief  RTC Date structure definition
 152:Drivers/STM32F0xx_HAL_Driver/Inc/stm32f0xx_ll_rtc.h ****   */
 153:Drivers/STM32F0xx_HAL_Driver/Inc/stm32f0xx_ll_rtc.h **** typedef struct
 154:Drivers/STM32F0xx_HAL_Driver/Inc/stm32f0xx_ll_rtc.h **** {
 155:Drivers/STM32F0xx_HAL_Driver/Inc/stm32f0xx_ll_rtc.h ****   uint8_t WeekDay;  /*!< Specifies the RTC Date WeekDay.
 156:Drivers/STM32F0xx_HAL_Driver/Inc/stm32f0xx_ll_rtc.h ****                          This parameter can be a value of @ref RTC_LL_EC_WEEKDAY
 157:Drivers/STM32F0xx_HAL_Driver/Inc/stm32f0xx_ll_rtc.h **** 
 158:Drivers/STM32F0xx_HAL_Driver/Inc/stm32f0xx_ll_rtc.h ****                          This feature can be modified afterwards using unitary function @ref LL_RTC
 159:Drivers/STM32F0xx_HAL_Driver/Inc/stm32f0xx_ll_rtc.h **** 
 160:Drivers/STM32F0xx_HAL_Driver/Inc/stm32f0xx_ll_rtc.h ****   uint8_t Month;    /*!< Specifies the RTC Date Month.
 161:Drivers/STM32F0xx_HAL_Driver/Inc/stm32f0xx_ll_rtc.h ****                          This parameter can be a value of @ref RTC_LL_EC_MONTH
 162:Drivers/STM32F0xx_HAL_Driver/Inc/stm32f0xx_ll_rtc.h **** 
 163:Drivers/STM32F0xx_HAL_Driver/Inc/stm32f0xx_ll_rtc.h ****                          This feature can be modified afterwards using unitary function @ref LL_RTC
 164:Drivers/STM32F0xx_HAL_Driver/Inc/stm32f0xx_ll_rtc.h **** 
 165:Drivers/STM32F0xx_HAL_Driver/Inc/stm32f0xx_ll_rtc.h ****   uint8_t Day;      /*!< Specifies the RTC Date Day.
 166:Drivers/STM32F0xx_HAL_Driver/Inc/stm32f0xx_ll_rtc.h ****                          This parameter must be a number between Min_Data = 1 and Max_Data = 31
 167:Drivers/STM32F0xx_HAL_Driver/Inc/stm32f0xx_ll_rtc.h **** 
 168:Drivers/STM32F0xx_HAL_Driver/Inc/stm32f0xx_ll_rtc.h ****                          This feature can be modified afterwards using unitary function @ref LL_RTC
 169:Drivers/STM32F0xx_HAL_Driver/Inc/stm32f0xx_ll_rtc.h **** 
 170:Drivers/STM32F0xx_HAL_Driver/Inc/stm32f0xx_ll_rtc.h ****   uint8_t Year;     /*!< Specifies the RTC Date Year.
 171:Drivers/STM32F0xx_HAL_Driver/Inc/stm32f0xx_ll_rtc.h ****                          This parameter must be a number between Min_Data = 0 and Max_Data = 99
 172:Drivers/STM32F0xx_HAL_Driver/Inc/stm32f0xx_ll_rtc.h **** 
 173:Drivers/STM32F0xx_HAL_Driver/Inc/stm32f0xx_ll_rtc.h ****                          This feature can be modified afterwards using unitary function @ref LL_RTC
 174:Drivers/STM32F0xx_HAL_Driver/Inc/stm32f0xx_ll_rtc.h **** } LL_RTC_DateTypeDef;
 175:Drivers/STM32F0xx_HAL_Driver/Inc/stm32f0xx_ll_rtc.h **** 
 176:Drivers/STM32F0xx_HAL_Driver/Inc/stm32f0xx_ll_rtc.h **** /**
 177:Drivers/STM32F0xx_HAL_Driver/Inc/stm32f0xx_ll_rtc.h ****   * @brief  RTC Alarm structure definition
 178:Drivers/STM32F0xx_HAL_Driver/Inc/stm32f0xx_ll_rtc.h ****   */
 179:Drivers/STM32F0xx_HAL_Driver/Inc/stm32f0xx_ll_rtc.h **** typedef struct
 180:Drivers/STM32F0xx_HAL_Driver/Inc/stm32f0xx_ll_rtc.h **** {
 181:Drivers/STM32F0xx_HAL_Driver/Inc/stm32f0xx_ll_rtc.h ****   LL_RTC_TimeTypeDef AlarmTime;  /*!< Specifies the RTC Alarm Time members. */
 182:Drivers/STM32F0xx_HAL_Driver/Inc/stm32f0xx_ll_rtc.h **** 
ARM GAS  C:\Users\strag\AppData\Local\Temp\ccM4RwII.s 			page 15


 183:Drivers/STM32F0xx_HAL_Driver/Inc/stm32f0xx_ll_rtc.h ****   uint32_t AlarmMask;            /*!< Specifies the RTC Alarm Masks.
 184:Drivers/STM32F0xx_HAL_Driver/Inc/stm32f0xx_ll_rtc.h **** 
 185:Drivers/STM32F0xx_HAL_Driver/Inc/stm32f0xx_ll_rtc.h ****                                       This parameter can be a value of @ref RTC_LL_EC_ALMA_MASK
 186:Drivers/STM32F0xx_HAL_Driver/Inc/stm32f0xx_ll_rtc.h ****                                       This feature can be modified afterwards using unitary functio
 187:Drivers/STM32F0xx_HAL_Driver/Inc/stm32f0xx_ll_rtc.h ****                                  */
 188:Drivers/STM32F0xx_HAL_Driver/Inc/stm32f0xx_ll_rtc.h **** 
 189:Drivers/STM32F0xx_HAL_Driver/Inc/stm32f0xx_ll_rtc.h ****   uint32_t AlarmDateWeekDaySel;  /*!< Specifies the RTC Alarm is on day or WeekDay.
 190:Drivers/STM32F0xx_HAL_Driver/Inc/stm32f0xx_ll_rtc.h ****                                       This parameter can be a value of @ref RTC_LL_EC_ALMA_WEEKDAY_
 191:Drivers/STM32F0xx_HAL_Driver/Inc/stm32f0xx_ll_rtc.h **** 
 192:Drivers/STM32F0xx_HAL_Driver/Inc/stm32f0xx_ll_rtc.h ****                                       This feature can be modified afterwards using unitary functio
 193:Drivers/STM32F0xx_HAL_Driver/Inc/stm32f0xx_ll_rtc.h ****                                  */
 194:Drivers/STM32F0xx_HAL_Driver/Inc/stm32f0xx_ll_rtc.h **** 
 195:Drivers/STM32F0xx_HAL_Driver/Inc/stm32f0xx_ll_rtc.h ****   uint8_t AlarmDateWeekDay;      /*!< Specifies the RTC Alarm Day/WeekDay.
 196:Drivers/STM32F0xx_HAL_Driver/Inc/stm32f0xx_ll_rtc.h ****                                       If AlarmDateWeekDaySel set to day, this parameter  must be a 
 197:Drivers/STM32F0xx_HAL_Driver/Inc/stm32f0xx_ll_rtc.h **** 
 198:Drivers/STM32F0xx_HAL_Driver/Inc/stm32f0xx_ll_rtc.h ****                                       This feature can be modified afterwards using unitary functio
 199:Drivers/STM32F0xx_HAL_Driver/Inc/stm32f0xx_ll_rtc.h **** 
 200:Drivers/STM32F0xx_HAL_Driver/Inc/stm32f0xx_ll_rtc.h ****                                       If AlarmDateWeekDaySel set to Weekday, this parameter can be 
 201:Drivers/STM32F0xx_HAL_Driver/Inc/stm32f0xx_ll_rtc.h **** 
 202:Drivers/STM32F0xx_HAL_Driver/Inc/stm32f0xx_ll_rtc.h ****                                       This feature can be modified afterwards using unitary functio
 203:Drivers/STM32F0xx_HAL_Driver/Inc/stm32f0xx_ll_rtc.h ****                                  */
 204:Drivers/STM32F0xx_HAL_Driver/Inc/stm32f0xx_ll_rtc.h **** } LL_RTC_AlarmTypeDef;
 205:Drivers/STM32F0xx_HAL_Driver/Inc/stm32f0xx_ll_rtc.h **** 
 206:Drivers/STM32F0xx_HAL_Driver/Inc/stm32f0xx_ll_rtc.h **** /**
 207:Drivers/STM32F0xx_HAL_Driver/Inc/stm32f0xx_ll_rtc.h ****   * @}
 208:Drivers/STM32F0xx_HAL_Driver/Inc/stm32f0xx_ll_rtc.h ****   */
 209:Drivers/STM32F0xx_HAL_Driver/Inc/stm32f0xx_ll_rtc.h **** #endif /* USE_FULL_LL_DRIVER */
 210:Drivers/STM32F0xx_HAL_Driver/Inc/stm32f0xx_ll_rtc.h **** 
 211:Drivers/STM32F0xx_HAL_Driver/Inc/stm32f0xx_ll_rtc.h **** /* Exported constants --------------------------------------------------------*/
 212:Drivers/STM32F0xx_HAL_Driver/Inc/stm32f0xx_ll_rtc.h **** /** @defgroup RTC_LL_Exported_Constants RTC Exported Constants
 213:Drivers/STM32F0xx_HAL_Driver/Inc/stm32f0xx_ll_rtc.h ****   * @{
 214:Drivers/STM32F0xx_HAL_Driver/Inc/stm32f0xx_ll_rtc.h ****   */
 215:Drivers/STM32F0xx_HAL_Driver/Inc/stm32f0xx_ll_rtc.h **** 
 216:Drivers/STM32F0xx_HAL_Driver/Inc/stm32f0xx_ll_rtc.h **** #if defined(USE_FULL_LL_DRIVER)
 217:Drivers/STM32F0xx_HAL_Driver/Inc/stm32f0xx_ll_rtc.h **** /** @defgroup RTC_LL_EC_FORMAT FORMAT
 218:Drivers/STM32F0xx_HAL_Driver/Inc/stm32f0xx_ll_rtc.h ****   * @{
 219:Drivers/STM32F0xx_HAL_Driver/Inc/stm32f0xx_ll_rtc.h ****   */
 220:Drivers/STM32F0xx_HAL_Driver/Inc/stm32f0xx_ll_rtc.h **** #define LL_RTC_FORMAT_BIN                  0x000000000U /*!< Binary data format */
 221:Drivers/STM32F0xx_HAL_Driver/Inc/stm32f0xx_ll_rtc.h **** #define LL_RTC_FORMAT_BCD                  0x000000001U /*!< BCD data format */
 222:Drivers/STM32F0xx_HAL_Driver/Inc/stm32f0xx_ll_rtc.h **** /**
 223:Drivers/STM32F0xx_HAL_Driver/Inc/stm32f0xx_ll_rtc.h ****   * @}
 224:Drivers/STM32F0xx_HAL_Driver/Inc/stm32f0xx_ll_rtc.h ****   */
 225:Drivers/STM32F0xx_HAL_Driver/Inc/stm32f0xx_ll_rtc.h **** 
 226:Drivers/STM32F0xx_HAL_Driver/Inc/stm32f0xx_ll_rtc.h **** /** @defgroup RTC_LL_EC_ALMA_WEEKDAY_SELECTION RTC Alarm A Date WeekDay
 227:Drivers/STM32F0xx_HAL_Driver/Inc/stm32f0xx_ll_rtc.h ****   * @{
 228:Drivers/STM32F0xx_HAL_Driver/Inc/stm32f0xx_ll_rtc.h ****   */
 229:Drivers/STM32F0xx_HAL_Driver/Inc/stm32f0xx_ll_rtc.h **** #define LL_RTC_ALMA_DATEWEEKDAYSEL_DATE    0x00000000U             /*!< Alarm A Date is selected */
 230:Drivers/STM32F0xx_HAL_Driver/Inc/stm32f0xx_ll_rtc.h **** #define LL_RTC_ALMA_DATEWEEKDAYSEL_WEEKDAY RTC_ALRMAR_WDSEL        /*!< Alarm A WeekDay is selected
 231:Drivers/STM32F0xx_HAL_Driver/Inc/stm32f0xx_ll_rtc.h **** /**
 232:Drivers/STM32F0xx_HAL_Driver/Inc/stm32f0xx_ll_rtc.h ****   * @}
 233:Drivers/STM32F0xx_HAL_Driver/Inc/stm32f0xx_ll_rtc.h ****   */
 234:Drivers/STM32F0xx_HAL_Driver/Inc/stm32f0xx_ll_rtc.h **** 
 235:Drivers/STM32F0xx_HAL_Driver/Inc/stm32f0xx_ll_rtc.h **** #endif /* USE_FULL_LL_DRIVER */
 236:Drivers/STM32F0xx_HAL_Driver/Inc/stm32f0xx_ll_rtc.h **** 
 237:Drivers/STM32F0xx_HAL_Driver/Inc/stm32f0xx_ll_rtc.h **** /** @defgroup RTC_LL_EC_GET_FLAG Get Flags Defines
 238:Drivers/STM32F0xx_HAL_Driver/Inc/stm32f0xx_ll_rtc.h ****   * @brief    Flags defines which can be used with LL_RTC_ReadReg function
 239:Drivers/STM32F0xx_HAL_Driver/Inc/stm32f0xx_ll_rtc.h ****   * @{
ARM GAS  C:\Users\strag\AppData\Local\Temp\ccM4RwII.s 			page 16


 240:Drivers/STM32F0xx_HAL_Driver/Inc/stm32f0xx_ll_rtc.h ****   */
 241:Drivers/STM32F0xx_HAL_Driver/Inc/stm32f0xx_ll_rtc.h **** #define LL_RTC_ISR_RECALPF                 RTC_ISR_RECALPF
 242:Drivers/STM32F0xx_HAL_Driver/Inc/stm32f0xx_ll_rtc.h **** #define LL_RTC_ISR_TAMP3F                  RTC_ISR_TAMP3F
 243:Drivers/STM32F0xx_HAL_Driver/Inc/stm32f0xx_ll_rtc.h **** #define LL_RTC_ISR_TAMP2F                  RTC_ISR_TAMP2F
 244:Drivers/STM32F0xx_HAL_Driver/Inc/stm32f0xx_ll_rtc.h **** #define LL_RTC_ISR_TAMP1F                  RTC_ISR_TAMP1F
 245:Drivers/STM32F0xx_HAL_Driver/Inc/stm32f0xx_ll_rtc.h **** #define LL_RTC_ISR_TSOVF                   RTC_ISR_TSOVF
 246:Drivers/STM32F0xx_HAL_Driver/Inc/stm32f0xx_ll_rtc.h **** #define LL_RTC_ISR_TSF                     RTC_ISR_TSF
 247:Drivers/STM32F0xx_HAL_Driver/Inc/stm32f0xx_ll_rtc.h **** #define LL_RTC_ISR_WUTF                    RTC_ISR_WUTF
 248:Drivers/STM32F0xx_HAL_Driver/Inc/stm32f0xx_ll_rtc.h **** #define LL_RTC_ISR_ALRAF                   RTC_ISR_ALRAF
 249:Drivers/STM32F0xx_HAL_Driver/Inc/stm32f0xx_ll_rtc.h **** #define LL_RTC_ISR_INITF                   RTC_ISR_INITF
 250:Drivers/STM32F0xx_HAL_Driver/Inc/stm32f0xx_ll_rtc.h **** #define LL_RTC_ISR_RSF                     RTC_ISR_RSF
 251:Drivers/STM32F0xx_HAL_Driver/Inc/stm32f0xx_ll_rtc.h **** #define LL_RTC_ISR_INITS                   RTC_ISR_INITS
 252:Drivers/STM32F0xx_HAL_Driver/Inc/stm32f0xx_ll_rtc.h **** #define LL_RTC_ISR_SHPF                    RTC_ISR_SHPF
 253:Drivers/STM32F0xx_HAL_Driver/Inc/stm32f0xx_ll_rtc.h **** #define LL_RTC_ISR_WUTWF                   RTC_ISR_WUTWF
 254:Drivers/STM32F0xx_HAL_Driver/Inc/stm32f0xx_ll_rtc.h **** #define LL_RTC_ISR_ALRAWF                  RTC_ISR_ALRAWF
 255:Drivers/STM32F0xx_HAL_Driver/Inc/stm32f0xx_ll_rtc.h **** /**
 256:Drivers/STM32F0xx_HAL_Driver/Inc/stm32f0xx_ll_rtc.h ****   * @}
 257:Drivers/STM32F0xx_HAL_Driver/Inc/stm32f0xx_ll_rtc.h ****   */
 258:Drivers/STM32F0xx_HAL_Driver/Inc/stm32f0xx_ll_rtc.h **** 
 259:Drivers/STM32F0xx_HAL_Driver/Inc/stm32f0xx_ll_rtc.h **** /** @defgroup RTC_LL_EC_IT IT Defines
 260:Drivers/STM32F0xx_HAL_Driver/Inc/stm32f0xx_ll_rtc.h ****   * @brief    IT defines which can be used with LL_RTC_ReadReg and  LL_RTC_WriteReg functions
 261:Drivers/STM32F0xx_HAL_Driver/Inc/stm32f0xx_ll_rtc.h ****   * @{
 262:Drivers/STM32F0xx_HAL_Driver/Inc/stm32f0xx_ll_rtc.h ****   */
 263:Drivers/STM32F0xx_HAL_Driver/Inc/stm32f0xx_ll_rtc.h **** #define LL_RTC_CR_TSIE                     RTC_CR_TSIE
 264:Drivers/STM32F0xx_HAL_Driver/Inc/stm32f0xx_ll_rtc.h **** #define LL_RTC_CR_WUTIE                    RTC_CR_WUTIE
 265:Drivers/STM32F0xx_HAL_Driver/Inc/stm32f0xx_ll_rtc.h **** #define LL_RTC_CR_ALRAIE                   RTC_CR_ALRAIE
 266:Drivers/STM32F0xx_HAL_Driver/Inc/stm32f0xx_ll_rtc.h **** #define LL_RTC_TAFCR_TAMPIE               RTC_TAFCR_TAMPIE
 267:Drivers/STM32F0xx_HAL_Driver/Inc/stm32f0xx_ll_rtc.h **** /**
 268:Drivers/STM32F0xx_HAL_Driver/Inc/stm32f0xx_ll_rtc.h ****   * @}
 269:Drivers/STM32F0xx_HAL_Driver/Inc/stm32f0xx_ll_rtc.h ****   */
 270:Drivers/STM32F0xx_HAL_Driver/Inc/stm32f0xx_ll_rtc.h **** 
 271:Drivers/STM32F0xx_HAL_Driver/Inc/stm32f0xx_ll_rtc.h **** /** @defgroup RTC_LL_EC_WEEKDAY  WEEK DAY
 272:Drivers/STM32F0xx_HAL_Driver/Inc/stm32f0xx_ll_rtc.h ****   * @{
 273:Drivers/STM32F0xx_HAL_Driver/Inc/stm32f0xx_ll_rtc.h ****   */
 274:Drivers/STM32F0xx_HAL_Driver/Inc/stm32f0xx_ll_rtc.h **** #define LL_RTC_WEEKDAY_MONDAY              ((uint8_t)0x01U) /*!< Monday    */
 275:Drivers/STM32F0xx_HAL_Driver/Inc/stm32f0xx_ll_rtc.h **** #define LL_RTC_WEEKDAY_TUESDAY             ((uint8_t)0x02U) /*!< Tuesday   */
 276:Drivers/STM32F0xx_HAL_Driver/Inc/stm32f0xx_ll_rtc.h **** #define LL_RTC_WEEKDAY_WEDNESDAY           ((uint8_t)0x03U) /*!< Wednesday */
 277:Drivers/STM32F0xx_HAL_Driver/Inc/stm32f0xx_ll_rtc.h **** #define LL_RTC_WEEKDAY_THURSDAY            ((uint8_t)0x04U) /*!< Thrusday  */
 278:Drivers/STM32F0xx_HAL_Driver/Inc/stm32f0xx_ll_rtc.h **** #define LL_RTC_WEEKDAY_FRIDAY              ((uint8_t)0x05U) /*!< Friday    */
 279:Drivers/STM32F0xx_HAL_Driver/Inc/stm32f0xx_ll_rtc.h **** #define LL_RTC_WEEKDAY_SATURDAY            ((uint8_t)0x06U) /*!< Saturday  */
 280:Drivers/STM32F0xx_HAL_Driver/Inc/stm32f0xx_ll_rtc.h **** #define LL_RTC_WEEKDAY_SUNDAY              ((uint8_t)0x07U) /*!< Sunday    */
 281:Drivers/STM32F0xx_HAL_Driver/Inc/stm32f0xx_ll_rtc.h **** /**
 282:Drivers/STM32F0xx_HAL_Driver/Inc/stm32f0xx_ll_rtc.h ****   * @}
 283:Drivers/STM32F0xx_HAL_Driver/Inc/stm32f0xx_ll_rtc.h ****   */
 284:Drivers/STM32F0xx_HAL_Driver/Inc/stm32f0xx_ll_rtc.h **** 
 285:Drivers/STM32F0xx_HAL_Driver/Inc/stm32f0xx_ll_rtc.h **** /** @defgroup RTC_LL_EC_MONTH  MONTH
 286:Drivers/STM32F0xx_HAL_Driver/Inc/stm32f0xx_ll_rtc.h ****   * @{
 287:Drivers/STM32F0xx_HAL_Driver/Inc/stm32f0xx_ll_rtc.h ****   */
 288:Drivers/STM32F0xx_HAL_Driver/Inc/stm32f0xx_ll_rtc.h **** #define LL_RTC_MONTH_JANUARY               ((uint8_t)0x01U)  /*!< January   */
 289:Drivers/STM32F0xx_HAL_Driver/Inc/stm32f0xx_ll_rtc.h **** #define LL_RTC_MONTH_FEBRUARY              ((uint8_t)0x02U)  /*!< February  */
 290:Drivers/STM32F0xx_HAL_Driver/Inc/stm32f0xx_ll_rtc.h **** #define LL_RTC_MONTH_MARCH                 ((uint8_t)0x03U)  /*!< March     */
 291:Drivers/STM32F0xx_HAL_Driver/Inc/stm32f0xx_ll_rtc.h **** #define LL_RTC_MONTH_APRIL                 ((uint8_t)0x04U)  /*!< April     */
 292:Drivers/STM32F0xx_HAL_Driver/Inc/stm32f0xx_ll_rtc.h **** #define LL_RTC_MONTH_MAY                   ((uint8_t)0x05U)  /*!< May       */
 293:Drivers/STM32F0xx_HAL_Driver/Inc/stm32f0xx_ll_rtc.h **** #define LL_RTC_MONTH_JUNE                  ((uint8_t)0x06U)  /*!< June      */
 294:Drivers/STM32F0xx_HAL_Driver/Inc/stm32f0xx_ll_rtc.h **** #define LL_RTC_MONTH_JULY                  ((uint8_t)0x07U)  /*!< July      */
 295:Drivers/STM32F0xx_HAL_Driver/Inc/stm32f0xx_ll_rtc.h **** #define LL_RTC_MONTH_AUGUST                ((uint8_t)0x08U)  /*!< August    */
 296:Drivers/STM32F0xx_HAL_Driver/Inc/stm32f0xx_ll_rtc.h **** #define LL_RTC_MONTH_SEPTEMBER             ((uint8_t)0x09U)  /*!< September */
ARM GAS  C:\Users\strag\AppData\Local\Temp\ccM4RwII.s 			page 17


 297:Drivers/STM32F0xx_HAL_Driver/Inc/stm32f0xx_ll_rtc.h **** #define LL_RTC_MONTH_OCTOBER               ((uint8_t)0x10U)  /*!< October   */
 298:Drivers/STM32F0xx_HAL_Driver/Inc/stm32f0xx_ll_rtc.h **** #define LL_RTC_MONTH_NOVEMBER              ((uint8_t)0x11U)  /*!< November  */
 299:Drivers/STM32F0xx_HAL_Driver/Inc/stm32f0xx_ll_rtc.h **** #define LL_RTC_MONTH_DECEMBER              ((uint8_t)0x12U)  /*!< December  */
 300:Drivers/STM32F0xx_HAL_Driver/Inc/stm32f0xx_ll_rtc.h **** /**
 301:Drivers/STM32F0xx_HAL_Driver/Inc/stm32f0xx_ll_rtc.h ****   * @}
 302:Drivers/STM32F0xx_HAL_Driver/Inc/stm32f0xx_ll_rtc.h ****   */
 303:Drivers/STM32F0xx_HAL_Driver/Inc/stm32f0xx_ll_rtc.h **** 
 304:Drivers/STM32F0xx_HAL_Driver/Inc/stm32f0xx_ll_rtc.h **** /** @defgroup RTC_LL_EC_HOURFORMAT  HOUR FORMAT
 305:Drivers/STM32F0xx_HAL_Driver/Inc/stm32f0xx_ll_rtc.h ****   * @{
 306:Drivers/STM32F0xx_HAL_Driver/Inc/stm32f0xx_ll_rtc.h ****   */
 307:Drivers/STM32F0xx_HAL_Driver/Inc/stm32f0xx_ll_rtc.h **** #define LL_RTC_HOURFORMAT_24HOUR           0x00000000U           /*!< 24 hour/day format */
 308:Drivers/STM32F0xx_HAL_Driver/Inc/stm32f0xx_ll_rtc.h **** #define LL_RTC_HOURFORMAT_AMPM             RTC_CR_FMT            /*!< AM/PM hour format */
 309:Drivers/STM32F0xx_HAL_Driver/Inc/stm32f0xx_ll_rtc.h **** /**
 310:Drivers/STM32F0xx_HAL_Driver/Inc/stm32f0xx_ll_rtc.h ****   * @}
 311:Drivers/STM32F0xx_HAL_Driver/Inc/stm32f0xx_ll_rtc.h ****   */
 312:Drivers/STM32F0xx_HAL_Driver/Inc/stm32f0xx_ll_rtc.h **** 
 313:Drivers/STM32F0xx_HAL_Driver/Inc/stm32f0xx_ll_rtc.h **** /** @defgroup RTC_LL_EC_ALARMOUT  ALARM OUTPUT
 314:Drivers/STM32F0xx_HAL_Driver/Inc/stm32f0xx_ll_rtc.h ****   * @{
 315:Drivers/STM32F0xx_HAL_Driver/Inc/stm32f0xx_ll_rtc.h ****   */
 316:Drivers/STM32F0xx_HAL_Driver/Inc/stm32f0xx_ll_rtc.h **** #define LL_RTC_ALARMOUT_DISABLE            0x00000000U             /*!< Output disabled */
 317:Drivers/STM32F0xx_HAL_Driver/Inc/stm32f0xx_ll_rtc.h **** #define LL_RTC_ALARMOUT_ALMA               RTC_CR_OSEL_0           /*!< Alarm A output enabled */
 318:Drivers/STM32F0xx_HAL_Driver/Inc/stm32f0xx_ll_rtc.h **** #define LL_RTC_ALARMOUT_ALMB               RTC_CR_OSEL_1           /*!< Alarm B output enabled */
 319:Drivers/STM32F0xx_HAL_Driver/Inc/stm32f0xx_ll_rtc.h **** #define LL_RTC_ALARMOUT_WAKEUP             RTC_CR_OSEL             /*!< Wakeup output enabled */
 320:Drivers/STM32F0xx_HAL_Driver/Inc/stm32f0xx_ll_rtc.h **** /**
 321:Drivers/STM32F0xx_HAL_Driver/Inc/stm32f0xx_ll_rtc.h ****   * @}
 322:Drivers/STM32F0xx_HAL_Driver/Inc/stm32f0xx_ll_rtc.h ****   */
 323:Drivers/STM32F0xx_HAL_Driver/Inc/stm32f0xx_ll_rtc.h **** 
 324:Drivers/STM32F0xx_HAL_Driver/Inc/stm32f0xx_ll_rtc.h **** /** @defgroup RTC_LL_EC_ALARM_OUTPUTTYPE  ALARM OUTPUT TYPE
 325:Drivers/STM32F0xx_HAL_Driver/Inc/stm32f0xx_ll_rtc.h ****   * @{
 326:Drivers/STM32F0xx_HAL_Driver/Inc/stm32f0xx_ll_rtc.h ****   */
 327:Drivers/STM32F0xx_HAL_Driver/Inc/stm32f0xx_ll_rtc.h **** #define LL_RTC_ALARM_OUTPUTTYPE_OPENDRAIN  0x00000000U                          /*!< RTC_ALARM, whe
 328:Drivers/STM32F0xx_HAL_Driver/Inc/stm32f0xx_ll_rtc.h **** #define LL_RTC_ALARM_OUTPUTTYPE_PUSHPULL   RTC_TAFCR_ALARMOUTTYPE /*!< RTC_ALARM, when mapped on PC
 329:Drivers/STM32F0xx_HAL_Driver/Inc/stm32f0xx_ll_rtc.h **** /**
 330:Drivers/STM32F0xx_HAL_Driver/Inc/stm32f0xx_ll_rtc.h ****   * @}
 331:Drivers/STM32F0xx_HAL_Driver/Inc/stm32f0xx_ll_rtc.h ****   */
 332:Drivers/STM32F0xx_HAL_Driver/Inc/stm32f0xx_ll_rtc.h **** 
 333:Drivers/STM32F0xx_HAL_Driver/Inc/stm32f0xx_ll_rtc.h **** /** @defgroup RTC_LL_EC_PIN PIN
 334:Drivers/STM32F0xx_HAL_Driver/Inc/stm32f0xx_ll_rtc.h ****   * @{
 335:Drivers/STM32F0xx_HAL_Driver/Inc/stm32f0xx_ll_rtc.h ****   */
 336:Drivers/STM32F0xx_HAL_Driver/Inc/stm32f0xx_ll_rtc.h **** #define LL_RTC_PIN_PC13                    RTC_TAFCR_PC13MODE    /*!< PC13 is forced to push-pull o
 337:Drivers/STM32F0xx_HAL_Driver/Inc/stm32f0xx_ll_rtc.h **** #define LL_RTC_PIN_PC14                    RTC_TAFCR_PC14MODE    /*!< PC14 is forced to push-pull o
 338:Drivers/STM32F0xx_HAL_Driver/Inc/stm32f0xx_ll_rtc.h **** #define LL_RTC_PIN_PC15                    RTC_TAFCR_PC15MODE    /*!< PC15 is forced to push-pull o
 339:Drivers/STM32F0xx_HAL_Driver/Inc/stm32f0xx_ll_rtc.h **** /**
 340:Drivers/STM32F0xx_HAL_Driver/Inc/stm32f0xx_ll_rtc.h ****   * @}
 341:Drivers/STM32F0xx_HAL_Driver/Inc/stm32f0xx_ll_rtc.h ****   */
 342:Drivers/STM32F0xx_HAL_Driver/Inc/stm32f0xx_ll_rtc.h **** 
 343:Drivers/STM32F0xx_HAL_Driver/Inc/stm32f0xx_ll_rtc.h **** /** @defgroup RTC_LL_EC_OUTPUTPOLARITY_PIN  OUTPUT POLARITY PIN
 344:Drivers/STM32F0xx_HAL_Driver/Inc/stm32f0xx_ll_rtc.h ****   * @{
 345:Drivers/STM32F0xx_HAL_Driver/Inc/stm32f0xx_ll_rtc.h ****   */
 346:Drivers/STM32F0xx_HAL_Driver/Inc/stm32f0xx_ll_rtc.h **** #define LL_RTC_OUTPUTPOLARITY_PIN_HIGH     0x00000000U           /*!< Pin is high when ALRAF/ALRBF/
 347:Drivers/STM32F0xx_HAL_Driver/Inc/stm32f0xx_ll_rtc.h **** #define LL_RTC_OUTPUTPOLARITY_PIN_LOW      RTC_CR_POL            /*!< Pin is low when ALRAF/ALRBF/W
 348:Drivers/STM32F0xx_HAL_Driver/Inc/stm32f0xx_ll_rtc.h **** /**
 349:Drivers/STM32F0xx_HAL_Driver/Inc/stm32f0xx_ll_rtc.h ****   * @}
 350:Drivers/STM32F0xx_HAL_Driver/Inc/stm32f0xx_ll_rtc.h ****   */
 351:Drivers/STM32F0xx_HAL_Driver/Inc/stm32f0xx_ll_rtc.h **** 
 352:Drivers/STM32F0xx_HAL_Driver/Inc/stm32f0xx_ll_rtc.h **** /** @defgroup RTC_LL_EC_TIME_FORMAT TIME FORMAT
 353:Drivers/STM32F0xx_HAL_Driver/Inc/stm32f0xx_ll_rtc.h ****   * @{
ARM GAS  C:\Users\strag\AppData\Local\Temp\ccM4RwII.s 			page 18


 354:Drivers/STM32F0xx_HAL_Driver/Inc/stm32f0xx_ll_rtc.h ****   */
 355:Drivers/STM32F0xx_HAL_Driver/Inc/stm32f0xx_ll_rtc.h **** #define LL_RTC_TIME_FORMAT_AM_OR_24        0x00000000U           /*!< AM or 24-hour format */
 356:Drivers/STM32F0xx_HAL_Driver/Inc/stm32f0xx_ll_rtc.h **** #define LL_RTC_TIME_FORMAT_PM              RTC_TR_PM             /*!< PM */
 357:Drivers/STM32F0xx_HAL_Driver/Inc/stm32f0xx_ll_rtc.h **** /**
 358:Drivers/STM32F0xx_HAL_Driver/Inc/stm32f0xx_ll_rtc.h ****   * @}
 359:Drivers/STM32F0xx_HAL_Driver/Inc/stm32f0xx_ll_rtc.h ****   */
 360:Drivers/STM32F0xx_HAL_Driver/Inc/stm32f0xx_ll_rtc.h **** 
 361:Drivers/STM32F0xx_HAL_Driver/Inc/stm32f0xx_ll_rtc.h **** /** @defgroup RTC_LL_EC_SHIFT_SECOND  SHIFT SECOND
 362:Drivers/STM32F0xx_HAL_Driver/Inc/stm32f0xx_ll_rtc.h ****   * @{
 363:Drivers/STM32F0xx_HAL_Driver/Inc/stm32f0xx_ll_rtc.h ****   */
 364:Drivers/STM32F0xx_HAL_Driver/Inc/stm32f0xx_ll_rtc.h **** #define LL_RTC_SHIFT_SECOND_DELAY          0x00000000U           /* Delay (seconds) = SUBFS / (PRED
 365:Drivers/STM32F0xx_HAL_Driver/Inc/stm32f0xx_ll_rtc.h **** #define LL_RTC_SHIFT_SECOND_ADVANCE        RTC_SHIFTR_ADD1S      /* Advance (seconds) = (1 - (SUBFS
 366:Drivers/STM32F0xx_HAL_Driver/Inc/stm32f0xx_ll_rtc.h **** /**
 367:Drivers/STM32F0xx_HAL_Driver/Inc/stm32f0xx_ll_rtc.h ****   * @}
 368:Drivers/STM32F0xx_HAL_Driver/Inc/stm32f0xx_ll_rtc.h ****   */
 369:Drivers/STM32F0xx_HAL_Driver/Inc/stm32f0xx_ll_rtc.h **** 
 370:Drivers/STM32F0xx_HAL_Driver/Inc/stm32f0xx_ll_rtc.h **** /** @defgroup RTC_LL_EC_ALMA_MASK  ALARMA MASK
 371:Drivers/STM32F0xx_HAL_Driver/Inc/stm32f0xx_ll_rtc.h ****   * @{
 372:Drivers/STM32F0xx_HAL_Driver/Inc/stm32f0xx_ll_rtc.h ****   */
 373:Drivers/STM32F0xx_HAL_Driver/Inc/stm32f0xx_ll_rtc.h **** #define LL_RTC_ALMA_MASK_NONE              0x00000000U             /*!< No masks applied on Alarm A
 374:Drivers/STM32F0xx_HAL_Driver/Inc/stm32f0xx_ll_rtc.h **** #define LL_RTC_ALMA_MASK_DATEWEEKDAY       RTC_ALRMAR_MSK4         /*!< Date/day do not care in Ala
 375:Drivers/STM32F0xx_HAL_Driver/Inc/stm32f0xx_ll_rtc.h **** #define LL_RTC_ALMA_MASK_HOURS             RTC_ALRMAR_MSK3         /*!< Hours do not care in Alarm 
 376:Drivers/STM32F0xx_HAL_Driver/Inc/stm32f0xx_ll_rtc.h **** #define LL_RTC_ALMA_MASK_MINUTES           RTC_ALRMAR_MSK2         /*!< Minutes do not care in Alar
 377:Drivers/STM32F0xx_HAL_Driver/Inc/stm32f0xx_ll_rtc.h **** #define LL_RTC_ALMA_MASK_SECONDS           RTC_ALRMAR_MSK1         /*!< Seconds do not care in Alar
 378:Drivers/STM32F0xx_HAL_Driver/Inc/stm32f0xx_ll_rtc.h **** #define LL_RTC_ALMA_MASK_ALL               (RTC_ALRMAR_MSK4 | RTC_ALRMAR_MSK3 | RTC_ALRMAR_MSK2 | R
 379:Drivers/STM32F0xx_HAL_Driver/Inc/stm32f0xx_ll_rtc.h **** /**
 380:Drivers/STM32F0xx_HAL_Driver/Inc/stm32f0xx_ll_rtc.h ****   * @}
 381:Drivers/STM32F0xx_HAL_Driver/Inc/stm32f0xx_ll_rtc.h ****   */
 382:Drivers/STM32F0xx_HAL_Driver/Inc/stm32f0xx_ll_rtc.h **** 
 383:Drivers/STM32F0xx_HAL_Driver/Inc/stm32f0xx_ll_rtc.h **** /** @defgroup RTC_LL_EC_ALMA_TIME_FORMAT  ALARMA TIME FORMAT
 384:Drivers/STM32F0xx_HAL_Driver/Inc/stm32f0xx_ll_rtc.h ****   * @{
 385:Drivers/STM32F0xx_HAL_Driver/Inc/stm32f0xx_ll_rtc.h ****   */
 386:Drivers/STM32F0xx_HAL_Driver/Inc/stm32f0xx_ll_rtc.h **** #define LL_RTC_ALMA_TIME_FORMAT_AM         0x00000000U           /*!< AM or 24-hour format */
 387:Drivers/STM32F0xx_HAL_Driver/Inc/stm32f0xx_ll_rtc.h **** #define LL_RTC_ALMA_TIME_FORMAT_PM         RTC_ALRMAR_PM         /*!< PM */
 388:Drivers/STM32F0xx_HAL_Driver/Inc/stm32f0xx_ll_rtc.h **** /**
 389:Drivers/STM32F0xx_HAL_Driver/Inc/stm32f0xx_ll_rtc.h ****   * @}
 390:Drivers/STM32F0xx_HAL_Driver/Inc/stm32f0xx_ll_rtc.h ****   */
 391:Drivers/STM32F0xx_HAL_Driver/Inc/stm32f0xx_ll_rtc.h **** 
 392:Drivers/STM32F0xx_HAL_Driver/Inc/stm32f0xx_ll_rtc.h **** /** @defgroup RTC_LL_EC_TIMESTAMP_EDGE  TIMESTAMP EDGE
 393:Drivers/STM32F0xx_HAL_Driver/Inc/stm32f0xx_ll_rtc.h ****   * @{
 394:Drivers/STM32F0xx_HAL_Driver/Inc/stm32f0xx_ll_rtc.h ****   */
 395:Drivers/STM32F0xx_HAL_Driver/Inc/stm32f0xx_ll_rtc.h **** #define LL_RTC_TIMESTAMP_EDGE_RISING       0x00000000U           /*!< RTC_TS input rising edge gene
 396:Drivers/STM32F0xx_HAL_Driver/Inc/stm32f0xx_ll_rtc.h **** #define LL_RTC_TIMESTAMP_EDGE_FALLING      RTC_CR_TSEDGE         /*!< RTC_TS input falling edge gen
 397:Drivers/STM32F0xx_HAL_Driver/Inc/stm32f0xx_ll_rtc.h **** /**
 398:Drivers/STM32F0xx_HAL_Driver/Inc/stm32f0xx_ll_rtc.h ****   * @}
 399:Drivers/STM32F0xx_HAL_Driver/Inc/stm32f0xx_ll_rtc.h ****   */
 400:Drivers/STM32F0xx_HAL_Driver/Inc/stm32f0xx_ll_rtc.h **** 
 401:Drivers/STM32F0xx_HAL_Driver/Inc/stm32f0xx_ll_rtc.h **** /** @defgroup RTC_LL_EC_TS_TIME_FORMAT  TIMESTAMP TIME FORMAT
 402:Drivers/STM32F0xx_HAL_Driver/Inc/stm32f0xx_ll_rtc.h ****   * @{
 403:Drivers/STM32F0xx_HAL_Driver/Inc/stm32f0xx_ll_rtc.h ****   */
 404:Drivers/STM32F0xx_HAL_Driver/Inc/stm32f0xx_ll_rtc.h **** #define LL_RTC_TS_TIME_FORMAT_AM           0x00000000U           /*!< AM or 24-hour format */
 405:Drivers/STM32F0xx_HAL_Driver/Inc/stm32f0xx_ll_rtc.h **** #define LL_RTC_TS_TIME_FORMAT_PM           RTC_TSTR_PM           /*!< PM */
 406:Drivers/STM32F0xx_HAL_Driver/Inc/stm32f0xx_ll_rtc.h **** /**
 407:Drivers/STM32F0xx_HAL_Driver/Inc/stm32f0xx_ll_rtc.h ****   * @}
 408:Drivers/STM32F0xx_HAL_Driver/Inc/stm32f0xx_ll_rtc.h ****   */
 409:Drivers/STM32F0xx_HAL_Driver/Inc/stm32f0xx_ll_rtc.h **** 
 410:Drivers/STM32F0xx_HAL_Driver/Inc/stm32f0xx_ll_rtc.h **** /** @defgroup RTC_LL_EC_TAMPER  TAMPER
ARM GAS  C:\Users\strag\AppData\Local\Temp\ccM4RwII.s 			page 19


 411:Drivers/STM32F0xx_HAL_Driver/Inc/stm32f0xx_ll_rtc.h ****   * @{
 412:Drivers/STM32F0xx_HAL_Driver/Inc/stm32f0xx_ll_rtc.h ****   */
 413:Drivers/STM32F0xx_HAL_Driver/Inc/stm32f0xx_ll_rtc.h **** #if defined(RTC_TAMPER1_SUPPORT)
 414:Drivers/STM32F0xx_HAL_Driver/Inc/stm32f0xx_ll_rtc.h **** #define LL_RTC_TAMPER_1                    RTC_TAFCR_TAMP1E /*!< RTC_TAMP1 input detection */
 415:Drivers/STM32F0xx_HAL_Driver/Inc/stm32f0xx_ll_rtc.h **** #endif /* RTC_TAMPER1_SUPPORT */
 416:Drivers/STM32F0xx_HAL_Driver/Inc/stm32f0xx_ll_rtc.h **** #if defined(RTC_TAMPER2_SUPPORT)
 417:Drivers/STM32F0xx_HAL_Driver/Inc/stm32f0xx_ll_rtc.h **** #define LL_RTC_TAMPER_2                    RTC_TAFCR_TAMP2E /*!< RTC_TAMP2 input detection */
 418:Drivers/STM32F0xx_HAL_Driver/Inc/stm32f0xx_ll_rtc.h **** #endif /* RTC_TAMPER2_SUPPORT */
 419:Drivers/STM32F0xx_HAL_Driver/Inc/stm32f0xx_ll_rtc.h **** #if defined(RTC_TAMPER3_SUPPORT)
 420:Drivers/STM32F0xx_HAL_Driver/Inc/stm32f0xx_ll_rtc.h **** #define LL_RTC_TAMPER_3                    RTC_TAFCR_TAMP3E /*!< RTC_TAMP3 input detection */
 421:Drivers/STM32F0xx_HAL_Driver/Inc/stm32f0xx_ll_rtc.h **** #endif /* RTC_TAMPER3_SUPPORT */
 422:Drivers/STM32F0xx_HAL_Driver/Inc/stm32f0xx_ll_rtc.h **** /**
 423:Drivers/STM32F0xx_HAL_Driver/Inc/stm32f0xx_ll_rtc.h ****   * @}
 424:Drivers/STM32F0xx_HAL_Driver/Inc/stm32f0xx_ll_rtc.h ****   */
 425:Drivers/STM32F0xx_HAL_Driver/Inc/stm32f0xx_ll_rtc.h **** 
 426:Drivers/STM32F0xx_HAL_Driver/Inc/stm32f0xx_ll_rtc.h **** /** @defgroup RTC_LL_EC_TAMPER_MASK  TAMPER MASK
 427:Drivers/STM32F0xx_HAL_Driver/Inc/stm32f0xx_ll_rtc.h ****   * @{
 428:Drivers/STM32F0xx_HAL_Driver/Inc/stm32f0xx_ll_rtc.h ****   */
 429:Drivers/STM32F0xx_HAL_Driver/Inc/stm32f0xx_ll_rtc.h **** #if defined(RTC_TAMPER1_SUPPORT)
 430:Drivers/STM32F0xx_HAL_Driver/Inc/stm32f0xx_ll_rtc.h **** #define LL_RTC_TAMPER_MASK_TAMPER1         RTC_TAFCR_TAMP1MF /*!< Tamper 1 event generates a trigge
 431:Drivers/STM32F0xx_HAL_Driver/Inc/stm32f0xx_ll_rtc.h **** #endif /* RTC_TAMPER1_SUPPORT */
 432:Drivers/STM32F0xx_HAL_Driver/Inc/stm32f0xx_ll_rtc.h **** #if defined(RTC_TAMPER2_SUPPORT)
 433:Drivers/STM32F0xx_HAL_Driver/Inc/stm32f0xx_ll_rtc.h **** #define LL_RTC_TAMPER_MASK_TAMPER2         RTC_TAFCR_TAMP2MF /*!< Tamper 2 event generates a trigge
 434:Drivers/STM32F0xx_HAL_Driver/Inc/stm32f0xx_ll_rtc.h **** #endif /* RTC_TAMPER2_SUPPORT */
 435:Drivers/STM32F0xx_HAL_Driver/Inc/stm32f0xx_ll_rtc.h **** #if defined(RTC_TAMPER3_SUPPORT)
 436:Drivers/STM32F0xx_HAL_Driver/Inc/stm32f0xx_ll_rtc.h **** #define LL_RTC_TAMPER_MASK_TAMPER3         RTC_TAFCR_TAMP3MF /*!< Tamper 3 event generates a trigge
 437:Drivers/STM32F0xx_HAL_Driver/Inc/stm32f0xx_ll_rtc.h **** #endif /* RTC_TAMPER3_SUPPORT */
 438:Drivers/STM32F0xx_HAL_Driver/Inc/stm32f0xx_ll_rtc.h **** /**
 439:Drivers/STM32F0xx_HAL_Driver/Inc/stm32f0xx_ll_rtc.h ****   * @}
 440:Drivers/STM32F0xx_HAL_Driver/Inc/stm32f0xx_ll_rtc.h ****   */
 441:Drivers/STM32F0xx_HAL_Driver/Inc/stm32f0xx_ll_rtc.h **** 
 442:Drivers/STM32F0xx_HAL_Driver/Inc/stm32f0xx_ll_rtc.h **** /** @defgroup RTC_LL_EC_TAMPER_NOERASE  TAMPER NO ERASE
 443:Drivers/STM32F0xx_HAL_Driver/Inc/stm32f0xx_ll_rtc.h ****   * @{
 444:Drivers/STM32F0xx_HAL_Driver/Inc/stm32f0xx_ll_rtc.h ****   */
 445:Drivers/STM32F0xx_HAL_Driver/Inc/stm32f0xx_ll_rtc.h **** #if defined(RTC_TAMPER1_SUPPORT)
 446:Drivers/STM32F0xx_HAL_Driver/Inc/stm32f0xx_ll_rtc.h **** #define LL_RTC_TAMPER_NOERASE_TAMPER1      RTC_TAFCR_TAMP1NOERASE /*!< Tamper 1 event does not eras
 447:Drivers/STM32F0xx_HAL_Driver/Inc/stm32f0xx_ll_rtc.h **** #endif /* RTC_TAMPER1_SUPPORT */
 448:Drivers/STM32F0xx_HAL_Driver/Inc/stm32f0xx_ll_rtc.h **** #if defined(RTC_TAMPER2_SUPPORT)
 449:Drivers/STM32F0xx_HAL_Driver/Inc/stm32f0xx_ll_rtc.h **** #define LL_RTC_TAMPER_NOERASE_TAMPER2      RTC_TAFCR_TAMP2NOERASE /*!< Tamper 2 event does not eras
 450:Drivers/STM32F0xx_HAL_Driver/Inc/stm32f0xx_ll_rtc.h **** #endif /* RTC_TAMPER2_SUPPORT */
 451:Drivers/STM32F0xx_HAL_Driver/Inc/stm32f0xx_ll_rtc.h **** #if defined(RTC_TAMPER3_SUPPORT)
 452:Drivers/STM32F0xx_HAL_Driver/Inc/stm32f0xx_ll_rtc.h **** #define LL_RTC_TAMPER_NOERASE_TAMPER3      RTC_TAFCR_TAMP3NOERASE /*!< Tamper 3 event does not eras
 453:Drivers/STM32F0xx_HAL_Driver/Inc/stm32f0xx_ll_rtc.h **** #endif /* RTC_TAMPER3_SUPPORT */
 454:Drivers/STM32F0xx_HAL_Driver/Inc/stm32f0xx_ll_rtc.h **** /**
 455:Drivers/STM32F0xx_HAL_Driver/Inc/stm32f0xx_ll_rtc.h ****   * @}
 456:Drivers/STM32F0xx_HAL_Driver/Inc/stm32f0xx_ll_rtc.h ****   */
 457:Drivers/STM32F0xx_HAL_Driver/Inc/stm32f0xx_ll_rtc.h **** 
 458:Drivers/STM32F0xx_HAL_Driver/Inc/stm32f0xx_ll_rtc.h **** #if defined(RTC_TAFCR_TAMPPRCH)
 459:Drivers/STM32F0xx_HAL_Driver/Inc/stm32f0xx_ll_rtc.h **** /** @defgroup RTC_LL_EC_TAMPER_DURATION  TAMPER DURATION
 460:Drivers/STM32F0xx_HAL_Driver/Inc/stm32f0xx_ll_rtc.h ****   * @{
 461:Drivers/STM32F0xx_HAL_Driver/Inc/stm32f0xx_ll_rtc.h ****   */
 462:Drivers/STM32F0xx_HAL_Driver/Inc/stm32f0xx_ll_rtc.h **** #define LL_RTC_TAMPER_DURATION_1RTCCLK     0x00000000U                             /*!< Tamper pins
 463:Drivers/STM32F0xx_HAL_Driver/Inc/stm32f0xx_ll_rtc.h **** #define LL_RTC_TAMPER_DURATION_2RTCCLK     RTC_TAFCR_TAMPPRCH_0  /*!< Tamper pins are pre-charged b
 464:Drivers/STM32F0xx_HAL_Driver/Inc/stm32f0xx_ll_rtc.h **** #define LL_RTC_TAMPER_DURATION_4RTCCLK     RTC_TAFCR_TAMPPRCH_1  /*!< Tamper pins are pre-charged b
 465:Drivers/STM32F0xx_HAL_Driver/Inc/stm32f0xx_ll_rtc.h **** #define LL_RTC_TAMPER_DURATION_8RTCCLK     RTC_TAFCR_TAMPPRCH    /*!< Tamper pins are pre-charged b
 466:Drivers/STM32F0xx_HAL_Driver/Inc/stm32f0xx_ll_rtc.h **** /**
 467:Drivers/STM32F0xx_HAL_Driver/Inc/stm32f0xx_ll_rtc.h ****   * @}
ARM GAS  C:\Users\strag\AppData\Local\Temp\ccM4RwII.s 			page 20


 468:Drivers/STM32F0xx_HAL_Driver/Inc/stm32f0xx_ll_rtc.h ****   */
 469:Drivers/STM32F0xx_HAL_Driver/Inc/stm32f0xx_ll_rtc.h **** #endif /* RTC_TAFCR_TAMPPRCH */
 470:Drivers/STM32F0xx_HAL_Driver/Inc/stm32f0xx_ll_rtc.h **** 
 471:Drivers/STM32F0xx_HAL_Driver/Inc/stm32f0xx_ll_rtc.h **** #if defined(RTC_TAFCR_TAMPFLT)
 472:Drivers/STM32F0xx_HAL_Driver/Inc/stm32f0xx_ll_rtc.h **** /** @defgroup RTC_LL_EC_TAMPER_FILTER  TAMPER FILTER
 473:Drivers/STM32F0xx_HAL_Driver/Inc/stm32f0xx_ll_rtc.h ****   * @{
 474:Drivers/STM32F0xx_HAL_Driver/Inc/stm32f0xx_ll_rtc.h ****   */
 475:Drivers/STM32F0xx_HAL_Driver/Inc/stm32f0xx_ll_rtc.h **** #define LL_RTC_TAMPER_FILTER_DISABLE       0x00000000U                              /*!< Tamper fil
 476:Drivers/STM32F0xx_HAL_Driver/Inc/stm32f0xx_ll_rtc.h **** #define LL_RTC_TAMPER_FILTER_2SAMPLE       RTC_TAFCR_TAMPFLT_0    /*!< Tamper is activated after 2 
 477:Drivers/STM32F0xx_HAL_Driver/Inc/stm32f0xx_ll_rtc.h **** #define LL_RTC_TAMPER_FILTER_4SAMPLE       RTC_TAFCR_TAMPFLT_1    /*!< Tamper is activated after 4 
 478:Drivers/STM32F0xx_HAL_Driver/Inc/stm32f0xx_ll_rtc.h **** #define LL_RTC_TAMPER_FILTER_8SAMPLE       RTC_TAFCR_TAMPFLT      /*!< Tamper is activated after 8 
 479:Drivers/STM32F0xx_HAL_Driver/Inc/stm32f0xx_ll_rtc.h **** /**
 480:Drivers/STM32F0xx_HAL_Driver/Inc/stm32f0xx_ll_rtc.h ****   * @}
 481:Drivers/STM32F0xx_HAL_Driver/Inc/stm32f0xx_ll_rtc.h ****   */
 482:Drivers/STM32F0xx_HAL_Driver/Inc/stm32f0xx_ll_rtc.h **** #endif /* RTC_TAFCR_TAMPFLT */
 483:Drivers/STM32F0xx_HAL_Driver/Inc/stm32f0xx_ll_rtc.h **** 
 484:Drivers/STM32F0xx_HAL_Driver/Inc/stm32f0xx_ll_rtc.h **** #if defined(RTC_TAFCR_TAMPFREQ)
 485:Drivers/STM32F0xx_HAL_Driver/Inc/stm32f0xx_ll_rtc.h **** /** @defgroup RTC_LL_EC_TAMPER_SAMPLFREQDIV  TAMPER SAMPLING FREQUENCY DIVIDER
 486:Drivers/STM32F0xx_HAL_Driver/Inc/stm32f0xx_ll_rtc.h ****   * @{
 487:Drivers/STM32F0xx_HAL_Driver/Inc/stm32f0xx_ll_rtc.h ****   */
 488:Drivers/STM32F0xx_HAL_Driver/Inc/stm32f0xx_ll_rtc.h **** #define LL_RTC_TAMPER_SAMPLFREQDIV_32768   0x00000000U                                             
 489:Drivers/STM32F0xx_HAL_Driver/Inc/stm32f0xx_ll_rtc.h **** #define LL_RTC_TAMPER_SAMPLFREQDIV_16384   RTC_TAFCR_TAMPFREQ_0                           /*!< Each
 490:Drivers/STM32F0xx_HAL_Driver/Inc/stm32f0xx_ll_rtc.h **** #define LL_RTC_TAMPER_SAMPLFREQDIV_8192    RTC_TAFCR_TAMPFREQ_1                           /*!< Each
 491:Drivers/STM32F0xx_HAL_Driver/Inc/stm32f0xx_ll_rtc.h **** #define LL_RTC_TAMPER_SAMPLFREQDIV_4096    (RTC_TAFCR_TAMPFREQ_1 | RTC_TAFCR_TAMPFREQ_0) /*!< Each 
 492:Drivers/STM32F0xx_HAL_Driver/Inc/stm32f0xx_ll_rtc.h **** #define LL_RTC_TAMPER_SAMPLFREQDIV_2048    RTC_TAFCR_TAMPFREQ_2                           /*!< Each
 493:Drivers/STM32F0xx_HAL_Driver/Inc/stm32f0xx_ll_rtc.h **** #define LL_RTC_TAMPER_SAMPLFREQDIV_1024    (RTC_TAFCR_TAMPFREQ_2 | RTC_TAFCR_TAMPFREQ_0) /*!< Each 
 494:Drivers/STM32F0xx_HAL_Driver/Inc/stm32f0xx_ll_rtc.h **** #define LL_RTC_TAMPER_SAMPLFREQDIV_512     (RTC_TAFCR_TAMPFREQ_2 | RTC_TAFCR_TAMPFREQ_1) /*!< Each 
 495:Drivers/STM32F0xx_HAL_Driver/Inc/stm32f0xx_ll_rtc.h **** #define LL_RTC_TAMPER_SAMPLFREQDIV_256     RTC_TAFCR_TAMPFREQ                             /*!< Each
 496:Drivers/STM32F0xx_HAL_Driver/Inc/stm32f0xx_ll_rtc.h **** /**
 497:Drivers/STM32F0xx_HAL_Driver/Inc/stm32f0xx_ll_rtc.h ****   * @}
 498:Drivers/STM32F0xx_HAL_Driver/Inc/stm32f0xx_ll_rtc.h ****   */
 499:Drivers/STM32F0xx_HAL_Driver/Inc/stm32f0xx_ll_rtc.h **** #endif /* RTC_TAFCR_TAMPFREQ */
 500:Drivers/STM32F0xx_HAL_Driver/Inc/stm32f0xx_ll_rtc.h **** 
 501:Drivers/STM32F0xx_HAL_Driver/Inc/stm32f0xx_ll_rtc.h **** /** @defgroup RTC_LL_EC_TAMPER_ACTIVELEVEL  TAMPER ACTIVE LEVEL
 502:Drivers/STM32F0xx_HAL_Driver/Inc/stm32f0xx_ll_rtc.h ****   * @{
 503:Drivers/STM32F0xx_HAL_Driver/Inc/stm32f0xx_ll_rtc.h ****   */
 504:Drivers/STM32F0xx_HAL_Driver/Inc/stm32f0xx_ll_rtc.h **** #if defined(RTC_TAMPER1_SUPPORT)
 505:Drivers/STM32F0xx_HAL_Driver/Inc/stm32f0xx_ll_rtc.h **** #define LL_RTC_TAMPER_ACTIVELEVEL_TAMP1    RTC_TAFCR_TAMP1TRG /*!< RTC_TAMP1 input falling edge (if
 506:Drivers/STM32F0xx_HAL_Driver/Inc/stm32f0xx_ll_rtc.h **** #endif /* RTC_TAMPER1_SUPPORT */
 507:Drivers/STM32F0xx_HAL_Driver/Inc/stm32f0xx_ll_rtc.h **** #if defined(RTC_TAMPER2_SUPPORT)
 508:Drivers/STM32F0xx_HAL_Driver/Inc/stm32f0xx_ll_rtc.h **** #define LL_RTC_TAMPER_ACTIVELEVEL_TAMP2    RTC_TAFCR_TAMP2TRG /*!< RTC_TAMP2 input falling edge (if
 509:Drivers/STM32F0xx_HAL_Driver/Inc/stm32f0xx_ll_rtc.h **** #endif /* RTC_TAMPER2_SUPPORT */
 510:Drivers/STM32F0xx_HAL_Driver/Inc/stm32f0xx_ll_rtc.h **** #if defined(RTC_TAMPER3_SUPPORT)
 511:Drivers/STM32F0xx_HAL_Driver/Inc/stm32f0xx_ll_rtc.h **** #define LL_RTC_TAMPER_ACTIVELEVEL_TAMP3    RTC_TAFCR_TAMP3TRG /*!< RTC_TAMP3 input falling edge (if
 512:Drivers/STM32F0xx_HAL_Driver/Inc/stm32f0xx_ll_rtc.h **** #endif /* RTC_TAMPER3_SUPPORT */
 513:Drivers/STM32F0xx_HAL_Driver/Inc/stm32f0xx_ll_rtc.h **** /**
 514:Drivers/STM32F0xx_HAL_Driver/Inc/stm32f0xx_ll_rtc.h ****   * @}
 515:Drivers/STM32F0xx_HAL_Driver/Inc/stm32f0xx_ll_rtc.h ****   */
 516:Drivers/STM32F0xx_HAL_Driver/Inc/stm32f0xx_ll_rtc.h **** 
 517:Drivers/STM32F0xx_HAL_Driver/Inc/stm32f0xx_ll_rtc.h **** /** @defgroup RTC_LL_EC_WAKEUPCLOCK_DIV  WAKEUP CLOCK DIV
 518:Drivers/STM32F0xx_HAL_Driver/Inc/stm32f0xx_ll_rtc.h ****   * @{
 519:Drivers/STM32F0xx_HAL_Driver/Inc/stm32f0xx_ll_rtc.h ****   */
 520:Drivers/STM32F0xx_HAL_Driver/Inc/stm32f0xx_ll_rtc.h **** #define LL_RTC_WAKEUPCLOCK_DIV_16          0x00000000U                           /*!< RTC/16 clock 
 521:Drivers/STM32F0xx_HAL_Driver/Inc/stm32f0xx_ll_rtc.h **** #define LL_RTC_WAKEUPCLOCK_DIV_8           (RTC_CR_WUCKSEL_0)                    /*!< RTC/8 clock i
 522:Drivers/STM32F0xx_HAL_Driver/Inc/stm32f0xx_ll_rtc.h **** #define LL_RTC_WAKEUPCLOCK_DIV_4           (RTC_CR_WUCKSEL_1)                    /*!< RTC/4 clock i
 523:Drivers/STM32F0xx_HAL_Driver/Inc/stm32f0xx_ll_rtc.h **** #define LL_RTC_WAKEUPCLOCK_DIV_2           (RTC_CR_WUCKSEL_1 | RTC_CR_WUCKSEL_0) /*!< RTC/2 clock i
 524:Drivers/STM32F0xx_HAL_Driver/Inc/stm32f0xx_ll_rtc.h **** #define LL_RTC_WAKEUPCLOCK_CKSPRE          (RTC_CR_WUCKSEL_2)                    /*!< ck_spre (usua
ARM GAS  C:\Users\strag\AppData\Local\Temp\ccM4RwII.s 			page 21


 525:Drivers/STM32F0xx_HAL_Driver/Inc/stm32f0xx_ll_rtc.h **** #define LL_RTC_WAKEUPCLOCK_CKSPRE_WUT      (RTC_CR_WUCKSEL_2 | RTC_CR_WUCKSEL_1) /*!< ck_spre (usua
 526:Drivers/STM32F0xx_HAL_Driver/Inc/stm32f0xx_ll_rtc.h **** /**
 527:Drivers/STM32F0xx_HAL_Driver/Inc/stm32f0xx_ll_rtc.h ****   * @}
 528:Drivers/STM32F0xx_HAL_Driver/Inc/stm32f0xx_ll_rtc.h ****   */
 529:Drivers/STM32F0xx_HAL_Driver/Inc/stm32f0xx_ll_rtc.h **** 
 530:Drivers/STM32F0xx_HAL_Driver/Inc/stm32f0xx_ll_rtc.h **** #if defined(RTC_BACKUP_SUPPORT)
 531:Drivers/STM32F0xx_HAL_Driver/Inc/stm32f0xx_ll_rtc.h **** /** @defgroup RTC_LL_EC_BKP  BACKUP
 532:Drivers/STM32F0xx_HAL_Driver/Inc/stm32f0xx_ll_rtc.h ****   * @{
 533:Drivers/STM32F0xx_HAL_Driver/Inc/stm32f0xx_ll_rtc.h ****   */
 534:Drivers/STM32F0xx_HAL_Driver/Inc/stm32f0xx_ll_rtc.h **** #define LL_RTC_BKP_DR0                     0x00000000U
 535:Drivers/STM32F0xx_HAL_Driver/Inc/stm32f0xx_ll_rtc.h **** #define LL_RTC_BKP_DR1                     0x00000001U
 536:Drivers/STM32F0xx_HAL_Driver/Inc/stm32f0xx_ll_rtc.h **** #define LL_RTC_BKP_DR2                     0x00000002U
 537:Drivers/STM32F0xx_HAL_Driver/Inc/stm32f0xx_ll_rtc.h **** #define LL_RTC_BKP_DR3                     0x00000003U
 538:Drivers/STM32F0xx_HAL_Driver/Inc/stm32f0xx_ll_rtc.h **** #define LL_RTC_BKP_DR4                     0x00000004U
 539:Drivers/STM32F0xx_HAL_Driver/Inc/stm32f0xx_ll_rtc.h **** /**
 540:Drivers/STM32F0xx_HAL_Driver/Inc/stm32f0xx_ll_rtc.h ****   * @}
 541:Drivers/STM32F0xx_HAL_Driver/Inc/stm32f0xx_ll_rtc.h ****   */
 542:Drivers/STM32F0xx_HAL_Driver/Inc/stm32f0xx_ll_rtc.h **** #endif /* RTC_BACKUP_SUPPORT */
 543:Drivers/STM32F0xx_HAL_Driver/Inc/stm32f0xx_ll_rtc.h **** 
 544:Drivers/STM32F0xx_HAL_Driver/Inc/stm32f0xx_ll_rtc.h **** /** @defgroup RTC_LL_EC_CALIB_OUTPUT  Calibration output
 545:Drivers/STM32F0xx_HAL_Driver/Inc/stm32f0xx_ll_rtc.h ****   * @{
 546:Drivers/STM32F0xx_HAL_Driver/Inc/stm32f0xx_ll_rtc.h ****   */
 547:Drivers/STM32F0xx_HAL_Driver/Inc/stm32f0xx_ll_rtc.h **** #define LL_RTC_CALIB_OUTPUT_NONE           0x00000000U                 /*!< Calibration output disa
 548:Drivers/STM32F0xx_HAL_Driver/Inc/stm32f0xx_ll_rtc.h **** #define LL_RTC_CALIB_OUTPUT_1HZ            (RTC_CR_COE | RTC_CR_COSEL) /*!< Calibration output is 1
 549:Drivers/STM32F0xx_HAL_Driver/Inc/stm32f0xx_ll_rtc.h **** #define LL_RTC_CALIB_OUTPUT_512HZ          (RTC_CR_COE)                /*!< Calibration output is 5
 550:Drivers/STM32F0xx_HAL_Driver/Inc/stm32f0xx_ll_rtc.h **** /**
 551:Drivers/STM32F0xx_HAL_Driver/Inc/stm32f0xx_ll_rtc.h ****   * @}
 552:Drivers/STM32F0xx_HAL_Driver/Inc/stm32f0xx_ll_rtc.h ****   */
 553:Drivers/STM32F0xx_HAL_Driver/Inc/stm32f0xx_ll_rtc.h **** 
 554:Drivers/STM32F0xx_HAL_Driver/Inc/stm32f0xx_ll_rtc.h **** /** @defgroup RTC_LL_EC_CALIB_INSERTPULSE  Calibration pulse insertion 
 555:Drivers/STM32F0xx_HAL_Driver/Inc/stm32f0xx_ll_rtc.h ****   * @{
 556:Drivers/STM32F0xx_HAL_Driver/Inc/stm32f0xx_ll_rtc.h ****   */
 557:Drivers/STM32F0xx_HAL_Driver/Inc/stm32f0xx_ll_rtc.h **** #define LL_RTC_CALIB_INSERTPULSE_NONE      0x00000000U           /*!< No RTCCLK pulses are added */
 558:Drivers/STM32F0xx_HAL_Driver/Inc/stm32f0xx_ll_rtc.h **** #define LL_RTC_CALIB_INSERTPULSE_SET       RTC_CALR_CALP         /*!< One RTCCLK pulse is effective
 559:Drivers/STM32F0xx_HAL_Driver/Inc/stm32f0xx_ll_rtc.h **** /**
 560:Drivers/STM32F0xx_HAL_Driver/Inc/stm32f0xx_ll_rtc.h ****   * @}
 561:Drivers/STM32F0xx_HAL_Driver/Inc/stm32f0xx_ll_rtc.h ****   */
 562:Drivers/STM32F0xx_HAL_Driver/Inc/stm32f0xx_ll_rtc.h **** 
 563:Drivers/STM32F0xx_HAL_Driver/Inc/stm32f0xx_ll_rtc.h **** /** @defgroup RTC_LL_EC_CALIB_PERIOD  Calibration period
 564:Drivers/STM32F0xx_HAL_Driver/Inc/stm32f0xx_ll_rtc.h ****   * @{
 565:Drivers/STM32F0xx_HAL_Driver/Inc/stm32f0xx_ll_rtc.h ****   */
 566:Drivers/STM32F0xx_HAL_Driver/Inc/stm32f0xx_ll_rtc.h **** #define LL_RTC_CALIB_PERIOD_32SEC          0x00000000U           /*!< Use a 32-second calibration c
 567:Drivers/STM32F0xx_HAL_Driver/Inc/stm32f0xx_ll_rtc.h **** #define LL_RTC_CALIB_PERIOD_16SEC          RTC_CALR_CALW16       /*!< Use a 16-second calibration c
 568:Drivers/STM32F0xx_HAL_Driver/Inc/stm32f0xx_ll_rtc.h **** #define LL_RTC_CALIB_PERIOD_8SEC           RTC_CALR_CALW8        /*!< Use a 8-second calibration cy
 569:Drivers/STM32F0xx_HAL_Driver/Inc/stm32f0xx_ll_rtc.h **** /**
 570:Drivers/STM32F0xx_HAL_Driver/Inc/stm32f0xx_ll_rtc.h ****   * @}
 571:Drivers/STM32F0xx_HAL_Driver/Inc/stm32f0xx_ll_rtc.h ****   */
 572:Drivers/STM32F0xx_HAL_Driver/Inc/stm32f0xx_ll_rtc.h **** 
 573:Drivers/STM32F0xx_HAL_Driver/Inc/stm32f0xx_ll_rtc.h **** /**
 574:Drivers/STM32F0xx_HAL_Driver/Inc/stm32f0xx_ll_rtc.h ****   * @}
 575:Drivers/STM32F0xx_HAL_Driver/Inc/stm32f0xx_ll_rtc.h ****   */
 576:Drivers/STM32F0xx_HAL_Driver/Inc/stm32f0xx_ll_rtc.h **** 
 577:Drivers/STM32F0xx_HAL_Driver/Inc/stm32f0xx_ll_rtc.h **** /* Exported macro ------------------------------------------------------------*/
 578:Drivers/STM32F0xx_HAL_Driver/Inc/stm32f0xx_ll_rtc.h **** /** @defgroup RTC_LL_Exported_Macros RTC Exported Macros
 579:Drivers/STM32F0xx_HAL_Driver/Inc/stm32f0xx_ll_rtc.h ****   * @{
 580:Drivers/STM32F0xx_HAL_Driver/Inc/stm32f0xx_ll_rtc.h ****   */
 581:Drivers/STM32F0xx_HAL_Driver/Inc/stm32f0xx_ll_rtc.h **** 
ARM GAS  C:\Users\strag\AppData\Local\Temp\ccM4RwII.s 			page 22


 582:Drivers/STM32F0xx_HAL_Driver/Inc/stm32f0xx_ll_rtc.h **** /** @defgroup RTC_LL_EM_WRITE_READ Common Write and read registers Macros
 583:Drivers/STM32F0xx_HAL_Driver/Inc/stm32f0xx_ll_rtc.h ****   * @{
 584:Drivers/STM32F0xx_HAL_Driver/Inc/stm32f0xx_ll_rtc.h ****   */
 585:Drivers/STM32F0xx_HAL_Driver/Inc/stm32f0xx_ll_rtc.h **** 
 586:Drivers/STM32F0xx_HAL_Driver/Inc/stm32f0xx_ll_rtc.h **** /**
 587:Drivers/STM32F0xx_HAL_Driver/Inc/stm32f0xx_ll_rtc.h ****   * @brief  Write a value in RTC register
 588:Drivers/STM32F0xx_HAL_Driver/Inc/stm32f0xx_ll_rtc.h ****   * @param  __INSTANCE__ RTC Instance
 589:Drivers/STM32F0xx_HAL_Driver/Inc/stm32f0xx_ll_rtc.h ****   * @param  __REG__ Register to be written
 590:Drivers/STM32F0xx_HAL_Driver/Inc/stm32f0xx_ll_rtc.h ****   * @param  __VALUE__ Value to be written in the register
 591:Drivers/STM32F0xx_HAL_Driver/Inc/stm32f0xx_ll_rtc.h ****   * @retval None
 592:Drivers/STM32F0xx_HAL_Driver/Inc/stm32f0xx_ll_rtc.h ****   */
 593:Drivers/STM32F0xx_HAL_Driver/Inc/stm32f0xx_ll_rtc.h **** #define LL_RTC_WriteReg(__INSTANCE__, __REG__, __VALUE__) WRITE_REG(__INSTANCE__->__REG__, (__VALUE
 594:Drivers/STM32F0xx_HAL_Driver/Inc/stm32f0xx_ll_rtc.h **** 
 595:Drivers/STM32F0xx_HAL_Driver/Inc/stm32f0xx_ll_rtc.h **** /**
 596:Drivers/STM32F0xx_HAL_Driver/Inc/stm32f0xx_ll_rtc.h ****   * @brief  Read a value in RTC register
 597:Drivers/STM32F0xx_HAL_Driver/Inc/stm32f0xx_ll_rtc.h ****   * @param  __INSTANCE__ RTC Instance
 598:Drivers/STM32F0xx_HAL_Driver/Inc/stm32f0xx_ll_rtc.h ****   * @param  __REG__ Register to be read
 599:Drivers/STM32F0xx_HAL_Driver/Inc/stm32f0xx_ll_rtc.h ****   * @retval Register value
 600:Drivers/STM32F0xx_HAL_Driver/Inc/stm32f0xx_ll_rtc.h ****   */
 601:Drivers/STM32F0xx_HAL_Driver/Inc/stm32f0xx_ll_rtc.h **** #define LL_RTC_ReadReg(__INSTANCE__, __REG__) READ_REG(__INSTANCE__->__REG__)
 602:Drivers/STM32F0xx_HAL_Driver/Inc/stm32f0xx_ll_rtc.h **** /**
 603:Drivers/STM32F0xx_HAL_Driver/Inc/stm32f0xx_ll_rtc.h ****   * @}
 604:Drivers/STM32F0xx_HAL_Driver/Inc/stm32f0xx_ll_rtc.h ****   */
 605:Drivers/STM32F0xx_HAL_Driver/Inc/stm32f0xx_ll_rtc.h **** 
 606:Drivers/STM32F0xx_HAL_Driver/Inc/stm32f0xx_ll_rtc.h **** /** @defgroup RTC_LL_EM_Convert Convert helper Macros
 607:Drivers/STM32F0xx_HAL_Driver/Inc/stm32f0xx_ll_rtc.h ****   * @{
 608:Drivers/STM32F0xx_HAL_Driver/Inc/stm32f0xx_ll_rtc.h ****   */
 609:Drivers/STM32F0xx_HAL_Driver/Inc/stm32f0xx_ll_rtc.h **** 
 610:Drivers/STM32F0xx_HAL_Driver/Inc/stm32f0xx_ll_rtc.h **** /**
 611:Drivers/STM32F0xx_HAL_Driver/Inc/stm32f0xx_ll_rtc.h ****   * @brief  Helper macro to convert a value from 2 digit decimal format to BCD format
 612:Drivers/STM32F0xx_HAL_Driver/Inc/stm32f0xx_ll_rtc.h ****   * @param  __VALUE__ Byte to be converted
 613:Drivers/STM32F0xx_HAL_Driver/Inc/stm32f0xx_ll_rtc.h ****   * @retval Converted byte
 614:Drivers/STM32F0xx_HAL_Driver/Inc/stm32f0xx_ll_rtc.h ****   */
 615:Drivers/STM32F0xx_HAL_Driver/Inc/stm32f0xx_ll_rtc.h **** #define __LL_RTC_CONVERT_BIN2BCD(__VALUE__) (uint8_t)((((__VALUE__) / 10U) << 4U) | ((__VALUE__) % 
 616:Drivers/STM32F0xx_HAL_Driver/Inc/stm32f0xx_ll_rtc.h **** 
 617:Drivers/STM32F0xx_HAL_Driver/Inc/stm32f0xx_ll_rtc.h **** /**
 618:Drivers/STM32F0xx_HAL_Driver/Inc/stm32f0xx_ll_rtc.h ****   * @brief  Helper macro to convert a value from BCD format to 2 digit decimal format
 619:Drivers/STM32F0xx_HAL_Driver/Inc/stm32f0xx_ll_rtc.h ****   * @param  __VALUE__ BCD value to be converted
 620:Drivers/STM32F0xx_HAL_Driver/Inc/stm32f0xx_ll_rtc.h ****   * @retval Converted byte
 621:Drivers/STM32F0xx_HAL_Driver/Inc/stm32f0xx_ll_rtc.h ****   */
 622:Drivers/STM32F0xx_HAL_Driver/Inc/stm32f0xx_ll_rtc.h **** #define __LL_RTC_CONVERT_BCD2BIN(__VALUE__) (uint8_t)(((uint8_t)((__VALUE__) & (uint8_t)0xF0U) >> (
 623:Drivers/STM32F0xx_HAL_Driver/Inc/stm32f0xx_ll_rtc.h **** 
 624:Drivers/STM32F0xx_HAL_Driver/Inc/stm32f0xx_ll_rtc.h **** /**
 625:Drivers/STM32F0xx_HAL_Driver/Inc/stm32f0xx_ll_rtc.h ****   * @}
 626:Drivers/STM32F0xx_HAL_Driver/Inc/stm32f0xx_ll_rtc.h ****   */
 627:Drivers/STM32F0xx_HAL_Driver/Inc/stm32f0xx_ll_rtc.h **** 
 628:Drivers/STM32F0xx_HAL_Driver/Inc/stm32f0xx_ll_rtc.h **** /** @defgroup RTC_LL_EM_Date Date helper Macros
 629:Drivers/STM32F0xx_HAL_Driver/Inc/stm32f0xx_ll_rtc.h ****   * @{
 630:Drivers/STM32F0xx_HAL_Driver/Inc/stm32f0xx_ll_rtc.h ****   */
 631:Drivers/STM32F0xx_HAL_Driver/Inc/stm32f0xx_ll_rtc.h **** 
 632:Drivers/STM32F0xx_HAL_Driver/Inc/stm32f0xx_ll_rtc.h **** /**
 633:Drivers/STM32F0xx_HAL_Driver/Inc/stm32f0xx_ll_rtc.h ****   * @brief  Helper macro to retrieve weekday.
 634:Drivers/STM32F0xx_HAL_Driver/Inc/stm32f0xx_ll_rtc.h ****   * @param  __RTC_DATE__ Date returned by @ref  LL_RTC_DATE_Get function.
 635:Drivers/STM32F0xx_HAL_Driver/Inc/stm32f0xx_ll_rtc.h ****   * @retval Returned value can be one of the following values:
 636:Drivers/STM32F0xx_HAL_Driver/Inc/stm32f0xx_ll_rtc.h ****   *         @arg @ref LL_RTC_WEEKDAY_MONDAY
 637:Drivers/STM32F0xx_HAL_Driver/Inc/stm32f0xx_ll_rtc.h ****   *         @arg @ref LL_RTC_WEEKDAY_TUESDAY
 638:Drivers/STM32F0xx_HAL_Driver/Inc/stm32f0xx_ll_rtc.h ****   *         @arg @ref LL_RTC_WEEKDAY_WEDNESDAY
ARM GAS  C:\Users\strag\AppData\Local\Temp\ccM4RwII.s 			page 23


 639:Drivers/STM32F0xx_HAL_Driver/Inc/stm32f0xx_ll_rtc.h ****   *         @arg @ref LL_RTC_WEEKDAY_THURSDAY
 640:Drivers/STM32F0xx_HAL_Driver/Inc/stm32f0xx_ll_rtc.h ****   *         @arg @ref LL_RTC_WEEKDAY_FRIDAY
 641:Drivers/STM32F0xx_HAL_Driver/Inc/stm32f0xx_ll_rtc.h ****   *         @arg @ref LL_RTC_WEEKDAY_SATURDAY
 642:Drivers/STM32F0xx_HAL_Driver/Inc/stm32f0xx_ll_rtc.h ****   *         @arg @ref LL_RTC_WEEKDAY_SUNDAY
 643:Drivers/STM32F0xx_HAL_Driver/Inc/stm32f0xx_ll_rtc.h ****   */
 644:Drivers/STM32F0xx_HAL_Driver/Inc/stm32f0xx_ll_rtc.h **** #define __LL_RTC_GET_WEEKDAY(__RTC_DATE__) (((__RTC_DATE__) >> RTC_OFFSET_WEEKDAY) & 0x000000FFU)
 645:Drivers/STM32F0xx_HAL_Driver/Inc/stm32f0xx_ll_rtc.h **** 
 646:Drivers/STM32F0xx_HAL_Driver/Inc/stm32f0xx_ll_rtc.h **** /**
 647:Drivers/STM32F0xx_HAL_Driver/Inc/stm32f0xx_ll_rtc.h ****   * @brief  Helper macro to retrieve Year in BCD format
 648:Drivers/STM32F0xx_HAL_Driver/Inc/stm32f0xx_ll_rtc.h ****   * @param  __RTC_DATE__ Value returned by @ref  LL_RTC_DATE_Get
 649:Drivers/STM32F0xx_HAL_Driver/Inc/stm32f0xx_ll_rtc.h ****   * @retval Year in BCD format (0x00 . . . 0x99)
 650:Drivers/STM32F0xx_HAL_Driver/Inc/stm32f0xx_ll_rtc.h ****   */
 651:Drivers/STM32F0xx_HAL_Driver/Inc/stm32f0xx_ll_rtc.h **** #define __LL_RTC_GET_YEAR(__RTC_DATE__) ((__RTC_DATE__) & 0x000000FFU)
 652:Drivers/STM32F0xx_HAL_Driver/Inc/stm32f0xx_ll_rtc.h **** 
 653:Drivers/STM32F0xx_HAL_Driver/Inc/stm32f0xx_ll_rtc.h **** /**
 654:Drivers/STM32F0xx_HAL_Driver/Inc/stm32f0xx_ll_rtc.h ****   * @brief  Helper macro to retrieve Month in BCD format
 655:Drivers/STM32F0xx_HAL_Driver/Inc/stm32f0xx_ll_rtc.h ****   * @param  __RTC_DATE__ Value returned by @ref  LL_RTC_DATE_Get
 656:Drivers/STM32F0xx_HAL_Driver/Inc/stm32f0xx_ll_rtc.h ****   * @retval Returned value can be one of the following values:
 657:Drivers/STM32F0xx_HAL_Driver/Inc/stm32f0xx_ll_rtc.h ****   *         @arg @ref LL_RTC_MONTH_JANUARY
 658:Drivers/STM32F0xx_HAL_Driver/Inc/stm32f0xx_ll_rtc.h ****   *         @arg @ref LL_RTC_MONTH_FEBRUARY
 659:Drivers/STM32F0xx_HAL_Driver/Inc/stm32f0xx_ll_rtc.h ****   *         @arg @ref LL_RTC_MONTH_MARCH
 660:Drivers/STM32F0xx_HAL_Driver/Inc/stm32f0xx_ll_rtc.h ****   *         @arg @ref LL_RTC_MONTH_APRIL
 661:Drivers/STM32F0xx_HAL_Driver/Inc/stm32f0xx_ll_rtc.h ****   *         @arg @ref LL_RTC_MONTH_MAY
 662:Drivers/STM32F0xx_HAL_Driver/Inc/stm32f0xx_ll_rtc.h ****   *         @arg @ref LL_RTC_MONTH_JUNE
 663:Drivers/STM32F0xx_HAL_Driver/Inc/stm32f0xx_ll_rtc.h ****   *         @arg @ref LL_RTC_MONTH_JULY
 664:Drivers/STM32F0xx_HAL_Driver/Inc/stm32f0xx_ll_rtc.h ****   *         @arg @ref LL_RTC_MONTH_AUGUST
 665:Drivers/STM32F0xx_HAL_Driver/Inc/stm32f0xx_ll_rtc.h ****   *         @arg @ref LL_RTC_MONTH_SEPTEMBER
 666:Drivers/STM32F0xx_HAL_Driver/Inc/stm32f0xx_ll_rtc.h ****   *         @arg @ref LL_RTC_MONTH_OCTOBER
 667:Drivers/STM32F0xx_HAL_Driver/Inc/stm32f0xx_ll_rtc.h ****   *         @arg @ref LL_RTC_MONTH_NOVEMBER
 668:Drivers/STM32F0xx_HAL_Driver/Inc/stm32f0xx_ll_rtc.h ****   *         @arg @ref LL_RTC_MONTH_DECEMBER
 669:Drivers/STM32F0xx_HAL_Driver/Inc/stm32f0xx_ll_rtc.h ****   */
 670:Drivers/STM32F0xx_HAL_Driver/Inc/stm32f0xx_ll_rtc.h **** #define __LL_RTC_GET_MONTH(__RTC_DATE__) (((__RTC_DATE__) >>RTC_OFFSET_MONTH) & 0x000000FFU)
 671:Drivers/STM32F0xx_HAL_Driver/Inc/stm32f0xx_ll_rtc.h **** 
 672:Drivers/STM32F0xx_HAL_Driver/Inc/stm32f0xx_ll_rtc.h **** /**
 673:Drivers/STM32F0xx_HAL_Driver/Inc/stm32f0xx_ll_rtc.h ****   * @brief  Helper macro to retrieve Day in BCD format
 674:Drivers/STM32F0xx_HAL_Driver/Inc/stm32f0xx_ll_rtc.h ****   * @param  __RTC_DATE__ Value returned by @ref  LL_RTC_DATE_Get
 675:Drivers/STM32F0xx_HAL_Driver/Inc/stm32f0xx_ll_rtc.h ****   * @retval Day in BCD format (0x01 . . . 0x31)
 676:Drivers/STM32F0xx_HAL_Driver/Inc/stm32f0xx_ll_rtc.h ****   */
 677:Drivers/STM32F0xx_HAL_Driver/Inc/stm32f0xx_ll_rtc.h **** #define __LL_RTC_GET_DAY(__RTC_DATE__) (((__RTC_DATE__) >>RTC_OFFSET_DAY) & 0x000000FFU)
 678:Drivers/STM32F0xx_HAL_Driver/Inc/stm32f0xx_ll_rtc.h **** 
 679:Drivers/STM32F0xx_HAL_Driver/Inc/stm32f0xx_ll_rtc.h **** /**
 680:Drivers/STM32F0xx_HAL_Driver/Inc/stm32f0xx_ll_rtc.h ****   * @}
 681:Drivers/STM32F0xx_HAL_Driver/Inc/stm32f0xx_ll_rtc.h ****   */
 682:Drivers/STM32F0xx_HAL_Driver/Inc/stm32f0xx_ll_rtc.h **** 
 683:Drivers/STM32F0xx_HAL_Driver/Inc/stm32f0xx_ll_rtc.h **** /** @defgroup RTC_LL_EM_Time Time helper Macros
 684:Drivers/STM32F0xx_HAL_Driver/Inc/stm32f0xx_ll_rtc.h ****   * @{
 685:Drivers/STM32F0xx_HAL_Driver/Inc/stm32f0xx_ll_rtc.h ****   */
 686:Drivers/STM32F0xx_HAL_Driver/Inc/stm32f0xx_ll_rtc.h **** 
 687:Drivers/STM32F0xx_HAL_Driver/Inc/stm32f0xx_ll_rtc.h **** /**
 688:Drivers/STM32F0xx_HAL_Driver/Inc/stm32f0xx_ll_rtc.h ****   * @brief  Helper macro to retrieve hour in BCD format
 689:Drivers/STM32F0xx_HAL_Driver/Inc/stm32f0xx_ll_rtc.h ****   * @param  __RTC_TIME__ RTC time returned by @ref LL_RTC_TIME_Get function
 690:Drivers/STM32F0xx_HAL_Driver/Inc/stm32f0xx_ll_rtc.h ****   * @retval Hours in BCD format (0x01. . .0x12 or between Min_Data=0x00 and Max_Data=0x23)
 691:Drivers/STM32F0xx_HAL_Driver/Inc/stm32f0xx_ll_rtc.h ****   */
 692:Drivers/STM32F0xx_HAL_Driver/Inc/stm32f0xx_ll_rtc.h **** #define __LL_RTC_GET_HOUR(__RTC_TIME__) (((__RTC_TIME__) >> RTC_OFFSET_HOUR) & 0x000000FFU)
 693:Drivers/STM32F0xx_HAL_Driver/Inc/stm32f0xx_ll_rtc.h **** 
 694:Drivers/STM32F0xx_HAL_Driver/Inc/stm32f0xx_ll_rtc.h **** /**
 695:Drivers/STM32F0xx_HAL_Driver/Inc/stm32f0xx_ll_rtc.h ****   * @brief  Helper macro to retrieve minute in BCD format
ARM GAS  C:\Users\strag\AppData\Local\Temp\ccM4RwII.s 			page 24


 696:Drivers/STM32F0xx_HAL_Driver/Inc/stm32f0xx_ll_rtc.h ****   * @param  __RTC_TIME__ RTC time returned by @ref LL_RTC_TIME_Get function
 697:Drivers/STM32F0xx_HAL_Driver/Inc/stm32f0xx_ll_rtc.h ****   * @retval Minutes in BCD format (0x00. . .0x59)
 698:Drivers/STM32F0xx_HAL_Driver/Inc/stm32f0xx_ll_rtc.h ****   */
 699:Drivers/STM32F0xx_HAL_Driver/Inc/stm32f0xx_ll_rtc.h **** #define __LL_RTC_GET_MINUTE(__RTC_TIME__) (((__RTC_TIME__) >> RTC_OFFSET_MINUTE) & 0x000000FFU)
 700:Drivers/STM32F0xx_HAL_Driver/Inc/stm32f0xx_ll_rtc.h **** 
 701:Drivers/STM32F0xx_HAL_Driver/Inc/stm32f0xx_ll_rtc.h **** /**
 702:Drivers/STM32F0xx_HAL_Driver/Inc/stm32f0xx_ll_rtc.h ****   * @brief  Helper macro to retrieve second in BCD format
 703:Drivers/STM32F0xx_HAL_Driver/Inc/stm32f0xx_ll_rtc.h ****   * @param  __RTC_TIME__ RTC time returned by @ref LL_RTC_TIME_Get function
 704:Drivers/STM32F0xx_HAL_Driver/Inc/stm32f0xx_ll_rtc.h ****   * @retval Seconds in  format (0x00. . .0x59)
 705:Drivers/STM32F0xx_HAL_Driver/Inc/stm32f0xx_ll_rtc.h ****   */
 706:Drivers/STM32F0xx_HAL_Driver/Inc/stm32f0xx_ll_rtc.h **** #define __LL_RTC_GET_SECOND(__RTC_TIME__) ((__RTC_TIME__) & 0x000000FFU)
 707:Drivers/STM32F0xx_HAL_Driver/Inc/stm32f0xx_ll_rtc.h **** 
 708:Drivers/STM32F0xx_HAL_Driver/Inc/stm32f0xx_ll_rtc.h **** /**
 709:Drivers/STM32F0xx_HAL_Driver/Inc/stm32f0xx_ll_rtc.h ****   * @}
 710:Drivers/STM32F0xx_HAL_Driver/Inc/stm32f0xx_ll_rtc.h ****   */
 711:Drivers/STM32F0xx_HAL_Driver/Inc/stm32f0xx_ll_rtc.h **** 
 712:Drivers/STM32F0xx_HAL_Driver/Inc/stm32f0xx_ll_rtc.h **** /**
 713:Drivers/STM32F0xx_HAL_Driver/Inc/stm32f0xx_ll_rtc.h ****   * @}
 714:Drivers/STM32F0xx_HAL_Driver/Inc/stm32f0xx_ll_rtc.h ****   */
 715:Drivers/STM32F0xx_HAL_Driver/Inc/stm32f0xx_ll_rtc.h **** 
 716:Drivers/STM32F0xx_HAL_Driver/Inc/stm32f0xx_ll_rtc.h **** /* Exported functions --------------------------------------------------------*/
 717:Drivers/STM32F0xx_HAL_Driver/Inc/stm32f0xx_ll_rtc.h **** /** @defgroup RTC_LL_Exported_Functions RTC Exported Functions
 718:Drivers/STM32F0xx_HAL_Driver/Inc/stm32f0xx_ll_rtc.h ****   * @{
 719:Drivers/STM32F0xx_HAL_Driver/Inc/stm32f0xx_ll_rtc.h ****   */
 720:Drivers/STM32F0xx_HAL_Driver/Inc/stm32f0xx_ll_rtc.h **** 
 721:Drivers/STM32F0xx_HAL_Driver/Inc/stm32f0xx_ll_rtc.h **** /** @defgroup RTC_LL_EF_Configuration Configuration
 722:Drivers/STM32F0xx_HAL_Driver/Inc/stm32f0xx_ll_rtc.h ****   * @{
 723:Drivers/STM32F0xx_HAL_Driver/Inc/stm32f0xx_ll_rtc.h ****   */
 724:Drivers/STM32F0xx_HAL_Driver/Inc/stm32f0xx_ll_rtc.h **** 
 725:Drivers/STM32F0xx_HAL_Driver/Inc/stm32f0xx_ll_rtc.h **** /**
 726:Drivers/STM32F0xx_HAL_Driver/Inc/stm32f0xx_ll_rtc.h ****   * @brief  Set Hours format (24 hour/day or AM/PM hour format)
 727:Drivers/STM32F0xx_HAL_Driver/Inc/stm32f0xx_ll_rtc.h ****   * @note   Bit is write-protected. @ref LL_RTC_DisableWriteProtection function should be called be
 728:Drivers/STM32F0xx_HAL_Driver/Inc/stm32f0xx_ll_rtc.h ****   * @note   It can be written in initialization mode only (@ref LL_RTC_EnableInitMode function)
 729:Drivers/STM32F0xx_HAL_Driver/Inc/stm32f0xx_ll_rtc.h ****   * @rmtoll CR           FMT           LL_RTC_SetHourFormat
 730:Drivers/STM32F0xx_HAL_Driver/Inc/stm32f0xx_ll_rtc.h ****   * @param  RTCx RTC Instance
 731:Drivers/STM32F0xx_HAL_Driver/Inc/stm32f0xx_ll_rtc.h ****   * @param  HourFormat This parameter can be one of the following values:
 732:Drivers/STM32F0xx_HAL_Driver/Inc/stm32f0xx_ll_rtc.h ****   *         @arg @ref LL_RTC_HOURFORMAT_24HOUR
 733:Drivers/STM32F0xx_HAL_Driver/Inc/stm32f0xx_ll_rtc.h ****   *         @arg @ref LL_RTC_HOURFORMAT_AMPM
 734:Drivers/STM32F0xx_HAL_Driver/Inc/stm32f0xx_ll_rtc.h ****   * @retval None
 735:Drivers/STM32F0xx_HAL_Driver/Inc/stm32f0xx_ll_rtc.h ****   */
 736:Drivers/STM32F0xx_HAL_Driver/Inc/stm32f0xx_ll_rtc.h **** __STATIC_INLINE void LL_RTC_SetHourFormat(RTC_TypeDef *RTCx, uint32_t HourFormat)
 737:Drivers/STM32F0xx_HAL_Driver/Inc/stm32f0xx_ll_rtc.h **** {
 738:Drivers/STM32F0xx_HAL_Driver/Inc/stm32f0xx_ll_rtc.h ****   MODIFY_REG(RTCx->CR, RTC_CR_FMT, HourFormat);
 739:Drivers/STM32F0xx_HAL_Driver/Inc/stm32f0xx_ll_rtc.h **** }
 740:Drivers/STM32F0xx_HAL_Driver/Inc/stm32f0xx_ll_rtc.h **** 
 741:Drivers/STM32F0xx_HAL_Driver/Inc/stm32f0xx_ll_rtc.h **** /**
 742:Drivers/STM32F0xx_HAL_Driver/Inc/stm32f0xx_ll_rtc.h ****   * @brief  Get Hours format (24 hour/day or AM/PM hour format)
 743:Drivers/STM32F0xx_HAL_Driver/Inc/stm32f0xx_ll_rtc.h ****   * @rmtoll CR           FMT           LL_RTC_GetHourFormat
 744:Drivers/STM32F0xx_HAL_Driver/Inc/stm32f0xx_ll_rtc.h ****   * @param  RTCx RTC Instance
 745:Drivers/STM32F0xx_HAL_Driver/Inc/stm32f0xx_ll_rtc.h ****   * @retval Returned value can be one of the following values:
 746:Drivers/STM32F0xx_HAL_Driver/Inc/stm32f0xx_ll_rtc.h ****   *         @arg @ref LL_RTC_HOURFORMAT_24HOUR
 747:Drivers/STM32F0xx_HAL_Driver/Inc/stm32f0xx_ll_rtc.h ****   *         @arg @ref LL_RTC_HOURFORMAT_AMPM
 748:Drivers/STM32F0xx_HAL_Driver/Inc/stm32f0xx_ll_rtc.h ****   */
 749:Drivers/STM32F0xx_HAL_Driver/Inc/stm32f0xx_ll_rtc.h **** __STATIC_INLINE uint32_t LL_RTC_GetHourFormat(RTC_TypeDef *RTCx)
 750:Drivers/STM32F0xx_HAL_Driver/Inc/stm32f0xx_ll_rtc.h **** {
 751:Drivers/STM32F0xx_HAL_Driver/Inc/stm32f0xx_ll_rtc.h ****   return (uint32_t)(READ_BIT(RTCx->CR, RTC_CR_FMT));
 150              		.loc 2 751 0
ARM GAS  C:\Users\strag\AppData\Local\Temp\ccM4RwII.s 			page 25


 151 0014 8368     		ldr	r3, [r0, #8]
 152              	.LVL5:
 153              	.LBE97:
 154              	.LBE96:
 475:Drivers/STM32F0xx_HAL_Driver/Src/stm32f0xx_ll_rtc.c ****   {
 476:Drivers/STM32F0xx_HAL_Driver/Src/stm32f0xx_ll_rtc.c ****     if (LL_RTC_GetHourFormat(RTCx) != LL_RTC_HOURFORMAT_24HOUR)
 155              		.loc 1 476 0
 156 0016 5B06     		lsls	r3, r3, #25
 157 0018 07D4     		bmi	.L7
 477:Drivers/STM32F0xx_HAL_Driver/Src/stm32f0xx_ll_rtc.c ****     {
 478:Drivers/STM32F0xx_HAL_Driver/Src/stm32f0xx_ll_rtc.c ****       assert_param(IS_LL_RTC_HOUR12(RTC_AlarmStruct->AlarmTime.Hours));
 479:Drivers/STM32F0xx_HAL_Driver/Src/stm32f0xx_ll_rtc.c ****       assert_param(IS_LL_RTC_TIME_FORMAT(RTC_AlarmStruct->AlarmTime.TimeFormat));
 480:Drivers/STM32F0xx_HAL_Driver/Src/stm32f0xx_ll_rtc.c ****     }
 481:Drivers/STM32F0xx_HAL_Driver/Src/stm32f0xx_ll_rtc.c ****     else
 482:Drivers/STM32F0xx_HAL_Driver/Src/stm32f0xx_ll_rtc.c ****     {
 483:Drivers/STM32F0xx_HAL_Driver/Src/stm32f0xx_ll_rtc.c ****       RTC_AlarmStruct->AlarmTime.TimeFormat = 0x00U;
 158              		.loc 1 483 0
 159 001a 0023     		movs	r3, #0
 160 001c 1360     		str	r3, [r2]
 161 001e 04E0     		b	.L7
 162              	.L5:
 163              	.LVL6:
 164              	.LBB98:
 165              	.LBB99:
 166              		.loc 2 751 0
 167 0020 8368     		ldr	r3, [r0, #8]
 168              	.LVL7:
 169              	.LBE99:
 170              	.LBE98:
 484:Drivers/STM32F0xx_HAL_Driver/Src/stm32f0xx_ll_rtc.c ****       assert_param(IS_LL_RTC_HOUR24(RTC_AlarmStruct->AlarmTime.Hours));
 485:Drivers/STM32F0xx_HAL_Driver/Src/stm32f0xx_ll_rtc.c ****     }
 486:Drivers/STM32F0xx_HAL_Driver/Src/stm32f0xx_ll_rtc.c ****     assert_param(IS_LL_RTC_MINUTES(RTC_AlarmStruct->AlarmTime.Minutes));
 487:Drivers/STM32F0xx_HAL_Driver/Src/stm32f0xx_ll_rtc.c ****     assert_param(IS_LL_RTC_SECONDS(RTC_AlarmStruct->AlarmTime.Seconds));
 488:Drivers/STM32F0xx_HAL_Driver/Src/stm32f0xx_ll_rtc.c **** 
 489:Drivers/STM32F0xx_HAL_Driver/Src/stm32f0xx_ll_rtc.c ****     if (RTC_AlarmStruct->AlarmDateWeekDaySel == LL_RTC_ALMA_DATEWEEKDAYSEL_DATE)
 490:Drivers/STM32F0xx_HAL_Driver/Src/stm32f0xx_ll_rtc.c ****     {
 491:Drivers/STM32F0xx_HAL_Driver/Src/stm32f0xx_ll_rtc.c ****       assert_param(IS_LL_RTC_DAY(RTC_AlarmStruct->AlarmDateWeekDay));
 492:Drivers/STM32F0xx_HAL_Driver/Src/stm32f0xx_ll_rtc.c ****     }
 493:Drivers/STM32F0xx_HAL_Driver/Src/stm32f0xx_ll_rtc.c ****     else
 494:Drivers/STM32F0xx_HAL_Driver/Src/stm32f0xx_ll_rtc.c ****     {
 495:Drivers/STM32F0xx_HAL_Driver/Src/stm32f0xx_ll_rtc.c ****       assert_param(IS_LL_RTC_WEEKDAY(RTC_AlarmStruct->AlarmDateWeekDay));
 496:Drivers/STM32F0xx_HAL_Driver/Src/stm32f0xx_ll_rtc.c ****     }
 497:Drivers/STM32F0xx_HAL_Driver/Src/stm32f0xx_ll_rtc.c ****   }
 498:Drivers/STM32F0xx_HAL_Driver/Src/stm32f0xx_ll_rtc.c ****   else
 499:Drivers/STM32F0xx_HAL_Driver/Src/stm32f0xx_ll_rtc.c ****   {
 500:Drivers/STM32F0xx_HAL_Driver/Src/stm32f0xx_ll_rtc.c ****     if (LL_RTC_GetHourFormat(RTCx) != LL_RTC_HOURFORMAT_24HOUR)
 171              		.loc 1 500 0
 172 0022 5B06     		lsls	r3, r3, #25
 173 0024 01D4     		bmi	.L7
 501:Drivers/STM32F0xx_HAL_Driver/Src/stm32f0xx_ll_rtc.c ****     {
 502:Drivers/STM32F0xx_HAL_Driver/Src/stm32f0xx_ll_rtc.c ****       assert_param(IS_LL_RTC_HOUR12(__LL_RTC_CONVERT_BCD2BIN(RTC_AlarmStruct->AlarmTime.Hours)));
 503:Drivers/STM32F0xx_HAL_Driver/Src/stm32f0xx_ll_rtc.c ****       assert_param(IS_LL_RTC_TIME_FORMAT(RTC_AlarmStruct->AlarmTime.TimeFormat));
 504:Drivers/STM32F0xx_HAL_Driver/Src/stm32f0xx_ll_rtc.c ****     }
 505:Drivers/STM32F0xx_HAL_Driver/Src/stm32f0xx_ll_rtc.c ****     else
 506:Drivers/STM32F0xx_HAL_Driver/Src/stm32f0xx_ll_rtc.c ****     {
 507:Drivers/STM32F0xx_HAL_Driver/Src/stm32f0xx_ll_rtc.c ****       RTC_AlarmStruct->AlarmTime.TimeFormat = 0x00U;
 174              		.loc 1 507 0
ARM GAS  C:\Users\strag\AppData\Local\Temp\ccM4RwII.s 			page 26


 175 0026 0023     		movs	r3, #0
 176 0028 1360     		str	r3, [r2]
 177              	.L7:
 178              	.LVL8:
 179              	.LBB100:
 180              	.LBB101:
 752:Drivers/STM32F0xx_HAL_Driver/Inc/stm32f0xx_ll_rtc.h **** }
 753:Drivers/STM32F0xx_HAL_Driver/Inc/stm32f0xx_ll_rtc.h **** 
 754:Drivers/STM32F0xx_HAL_Driver/Inc/stm32f0xx_ll_rtc.h **** /**
 755:Drivers/STM32F0xx_HAL_Driver/Inc/stm32f0xx_ll_rtc.h ****   * @brief  Select the flag to be routed to RTC_ALARM output
 756:Drivers/STM32F0xx_HAL_Driver/Inc/stm32f0xx_ll_rtc.h ****   * @note   Bit is write-protected. @ref LL_RTC_DisableWriteProtection function should be called be
 757:Drivers/STM32F0xx_HAL_Driver/Inc/stm32f0xx_ll_rtc.h ****   * @rmtoll CR           OSEL          LL_RTC_SetAlarmOutEvent
 758:Drivers/STM32F0xx_HAL_Driver/Inc/stm32f0xx_ll_rtc.h ****   * @param  RTCx RTC Instance
 759:Drivers/STM32F0xx_HAL_Driver/Inc/stm32f0xx_ll_rtc.h ****   * @param  AlarmOutput This parameter can be one of the following values:
 760:Drivers/STM32F0xx_HAL_Driver/Inc/stm32f0xx_ll_rtc.h ****   *         @arg @ref LL_RTC_ALARMOUT_DISABLE
 761:Drivers/STM32F0xx_HAL_Driver/Inc/stm32f0xx_ll_rtc.h ****   *         @arg @ref LL_RTC_ALARMOUT_ALMA
 762:Drivers/STM32F0xx_HAL_Driver/Inc/stm32f0xx_ll_rtc.h ****   *         @arg @ref LL_RTC_ALARMOUT_ALMB
 763:Drivers/STM32F0xx_HAL_Driver/Inc/stm32f0xx_ll_rtc.h ****   *         @arg @ref LL_RTC_ALARMOUT_WAKEUP
 764:Drivers/STM32F0xx_HAL_Driver/Inc/stm32f0xx_ll_rtc.h ****   * @retval None
 765:Drivers/STM32F0xx_HAL_Driver/Inc/stm32f0xx_ll_rtc.h ****   */
 766:Drivers/STM32F0xx_HAL_Driver/Inc/stm32f0xx_ll_rtc.h **** __STATIC_INLINE void LL_RTC_SetAlarmOutEvent(RTC_TypeDef *RTCx, uint32_t AlarmOutput)
 767:Drivers/STM32F0xx_HAL_Driver/Inc/stm32f0xx_ll_rtc.h **** {
 768:Drivers/STM32F0xx_HAL_Driver/Inc/stm32f0xx_ll_rtc.h ****   MODIFY_REG(RTCx->CR, RTC_CR_OSEL, AlarmOutput);
 769:Drivers/STM32F0xx_HAL_Driver/Inc/stm32f0xx_ll_rtc.h **** }
 770:Drivers/STM32F0xx_HAL_Driver/Inc/stm32f0xx_ll_rtc.h **** 
 771:Drivers/STM32F0xx_HAL_Driver/Inc/stm32f0xx_ll_rtc.h **** /**
 772:Drivers/STM32F0xx_HAL_Driver/Inc/stm32f0xx_ll_rtc.h ****   * @brief  Get the flag to be routed to RTC_ALARM output
 773:Drivers/STM32F0xx_HAL_Driver/Inc/stm32f0xx_ll_rtc.h ****   * @rmtoll CR           OSEL          LL_RTC_GetAlarmOutEvent
 774:Drivers/STM32F0xx_HAL_Driver/Inc/stm32f0xx_ll_rtc.h ****   * @param  RTCx RTC Instance
 775:Drivers/STM32F0xx_HAL_Driver/Inc/stm32f0xx_ll_rtc.h ****   * @retval Returned value can be one of the following values:
 776:Drivers/STM32F0xx_HAL_Driver/Inc/stm32f0xx_ll_rtc.h ****   *         @arg @ref LL_RTC_ALARMOUT_DISABLE
 777:Drivers/STM32F0xx_HAL_Driver/Inc/stm32f0xx_ll_rtc.h ****   *         @arg @ref LL_RTC_ALARMOUT_ALMA
 778:Drivers/STM32F0xx_HAL_Driver/Inc/stm32f0xx_ll_rtc.h ****   *         @arg @ref LL_RTC_ALARMOUT_ALMB
 779:Drivers/STM32F0xx_HAL_Driver/Inc/stm32f0xx_ll_rtc.h ****   *         @arg @ref LL_RTC_ALARMOUT_WAKEUP
 780:Drivers/STM32F0xx_HAL_Driver/Inc/stm32f0xx_ll_rtc.h ****   */
 781:Drivers/STM32F0xx_HAL_Driver/Inc/stm32f0xx_ll_rtc.h **** __STATIC_INLINE uint32_t LL_RTC_GetAlarmOutEvent(RTC_TypeDef *RTCx)
 782:Drivers/STM32F0xx_HAL_Driver/Inc/stm32f0xx_ll_rtc.h **** {
 783:Drivers/STM32F0xx_HAL_Driver/Inc/stm32f0xx_ll_rtc.h ****   return (uint32_t)(READ_BIT(RTCx->CR, RTC_CR_OSEL));
 784:Drivers/STM32F0xx_HAL_Driver/Inc/stm32f0xx_ll_rtc.h **** }
 785:Drivers/STM32F0xx_HAL_Driver/Inc/stm32f0xx_ll_rtc.h **** 
 786:Drivers/STM32F0xx_HAL_Driver/Inc/stm32f0xx_ll_rtc.h **** /**
 787:Drivers/STM32F0xx_HAL_Driver/Inc/stm32f0xx_ll_rtc.h ****   * @brief  Set RTC_ALARM output type (ALARM in push-pull or open-drain output)
 788:Drivers/STM32F0xx_HAL_Driver/Inc/stm32f0xx_ll_rtc.h ****   * @note   Used only when RTC_ALARM is mapped on PC13
 789:Drivers/STM32F0xx_HAL_Driver/Inc/stm32f0xx_ll_rtc.h ****   * @note   If all RTC alternate functions are disabled and PC13MODE = 1, PC13VALUE configures the
 790:Drivers/STM32F0xx_HAL_Driver/Inc/stm32f0xx_ll_rtc.h ****   *         PC13 output data
 791:Drivers/STM32F0xx_HAL_Driver/Inc/stm32f0xx_ll_rtc.h ****   * @rmtoll TAFCR        ALARMOUTTYPE  LL_RTC_SetAlarmOutputType
 792:Drivers/STM32F0xx_HAL_Driver/Inc/stm32f0xx_ll_rtc.h ****   * @param  RTCx RTC Instance
 793:Drivers/STM32F0xx_HAL_Driver/Inc/stm32f0xx_ll_rtc.h ****   * @param  Output This parameter can be one of the following values:
 794:Drivers/STM32F0xx_HAL_Driver/Inc/stm32f0xx_ll_rtc.h ****   *         @arg @ref LL_RTC_ALARM_OUTPUTTYPE_OPENDRAIN
 795:Drivers/STM32F0xx_HAL_Driver/Inc/stm32f0xx_ll_rtc.h ****   *         @arg @ref LL_RTC_ALARM_OUTPUTTYPE_PUSHPULL
 796:Drivers/STM32F0xx_HAL_Driver/Inc/stm32f0xx_ll_rtc.h ****   * @retval None
 797:Drivers/STM32F0xx_HAL_Driver/Inc/stm32f0xx_ll_rtc.h ****   */
 798:Drivers/STM32F0xx_HAL_Driver/Inc/stm32f0xx_ll_rtc.h **** __STATIC_INLINE void LL_RTC_SetAlarmOutputType(RTC_TypeDef *RTCx, uint32_t Output)
 799:Drivers/STM32F0xx_HAL_Driver/Inc/stm32f0xx_ll_rtc.h **** {
 800:Drivers/STM32F0xx_HAL_Driver/Inc/stm32f0xx_ll_rtc.h ****   MODIFY_REG(RTCx->TAFCR, RTC_TAFCR_ALARMOUTTYPE, Output);
 801:Drivers/STM32F0xx_HAL_Driver/Inc/stm32f0xx_ll_rtc.h **** }
 802:Drivers/STM32F0xx_HAL_Driver/Inc/stm32f0xx_ll_rtc.h **** 
ARM GAS  C:\Users\strag\AppData\Local\Temp\ccM4RwII.s 			page 27


 803:Drivers/STM32F0xx_HAL_Driver/Inc/stm32f0xx_ll_rtc.h **** /**
 804:Drivers/STM32F0xx_HAL_Driver/Inc/stm32f0xx_ll_rtc.h ****   * @brief  Get RTC_ALARM output type (ALARM in push-pull or open-drain output)
 805:Drivers/STM32F0xx_HAL_Driver/Inc/stm32f0xx_ll_rtc.h ****   * @note   used only when RTC_ALARM is mapped on PC13
 806:Drivers/STM32F0xx_HAL_Driver/Inc/stm32f0xx_ll_rtc.h ****   * @note   If all RTC alternate functions are disabled and PC13MODE = 1, PC13VALUE configures the
 807:Drivers/STM32F0xx_HAL_Driver/Inc/stm32f0xx_ll_rtc.h ****   *         PC13 output data
 808:Drivers/STM32F0xx_HAL_Driver/Inc/stm32f0xx_ll_rtc.h ****   * @rmtoll TAFCR        ALARMOUTTYPE  LL_RTC_GetAlarmOutputType
 809:Drivers/STM32F0xx_HAL_Driver/Inc/stm32f0xx_ll_rtc.h ****   * @param  RTCx RTC Instance
 810:Drivers/STM32F0xx_HAL_Driver/Inc/stm32f0xx_ll_rtc.h ****   * @retval Returned value can be one of the following values:
 811:Drivers/STM32F0xx_HAL_Driver/Inc/stm32f0xx_ll_rtc.h ****   *         @arg @ref LL_RTC_ALARM_OUTPUTTYPE_OPENDRAIN
 812:Drivers/STM32F0xx_HAL_Driver/Inc/stm32f0xx_ll_rtc.h ****   *         @arg @ref LL_RTC_ALARM_OUTPUTTYPE_PUSHPULL
 813:Drivers/STM32F0xx_HAL_Driver/Inc/stm32f0xx_ll_rtc.h ****   */
 814:Drivers/STM32F0xx_HAL_Driver/Inc/stm32f0xx_ll_rtc.h **** __STATIC_INLINE uint32_t LL_RTC_GetAlarmOutputType(RTC_TypeDef *RTCx)
 815:Drivers/STM32F0xx_HAL_Driver/Inc/stm32f0xx_ll_rtc.h **** {
 816:Drivers/STM32F0xx_HAL_Driver/Inc/stm32f0xx_ll_rtc.h ****   return (uint32_t)(READ_BIT(RTCx->TAFCR, RTC_TAFCR_ALARMOUTTYPE));
 817:Drivers/STM32F0xx_HAL_Driver/Inc/stm32f0xx_ll_rtc.h **** }
 818:Drivers/STM32F0xx_HAL_Driver/Inc/stm32f0xx_ll_rtc.h **** 
 819:Drivers/STM32F0xx_HAL_Driver/Inc/stm32f0xx_ll_rtc.h **** /**
 820:Drivers/STM32F0xx_HAL_Driver/Inc/stm32f0xx_ll_rtc.h ****   * @brief  Enable push-pull output on PC13, PC14 and/or PC15
 821:Drivers/STM32F0xx_HAL_Driver/Inc/stm32f0xx_ll_rtc.h ****   * @note   PC13 forced to push-pull output if all RTC alternate functions are disabled
 822:Drivers/STM32F0xx_HAL_Driver/Inc/stm32f0xx_ll_rtc.h ****   * @note   PC14 and PC15 forced to push-pull output if LSE is disabled
 823:Drivers/STM32F0xx_HAL_Driver/Inc/stm32f0xx_ll_rtc.h ****   * @rmtoll TAFCR        PC13MODE  LL_RTC_EnablePushPullMode\n
 824:Drivers/STM32F0xx_HAL_Driver/Inc/stm32f0xx_ll_rtc.h ****   * @rmtoll TAFCR        PC14MODE  LL_RTC_EnablePushPullMode\n
 825:Drivers/STM32F0xx_HAL_Driver/Inc/stm32f0xx_ll_rtc.h ****   * @rmtoll TAFCR        PC15MODE  LL_RTC_EnablePushPullMode
 826:Drivers/STM32F0xx_HAL_Driver/Inc/stm32f0xx_ll_rtc.h ****   * @param  RTCx RTC Instance
 827:Drivers/STM32F0xx_HAL_Driver/Inc/stm32f0xx_ll_rtc.h ****   * @param  PinMask This parameter can be a combination of the following values:
 828:Drivers/STM32F0xx_HAL_Driver/Inc/stm32f0xx_ll_rtc.h ****   *         @arg @ref LL_RTC_PIN_PC13
 829:Drivers/STM32F0xx_HAL_Driver/Inc/stm32f0xx_ll_rtc.h ****   *         @arg @ref LL_RTC_PIN_PC14
 830:Drivers/STM32F0xx_HAL_Driver/Inc/stm32f0xx_ll_rtc.h ****   *         @arg @ref LL_RTC_PIN_PC15
 831:Drivers/STM32F0xx_HAL_Driver/Inc/stm32f0xx_ll_rtc.h ****   * @retval None
 832:Drivers/STM32F0xx_HAL_Driver/Inc/stm32f0xx_ll_rtc.h ****   */
 833:Drivers/STM32F0xx_HAL_Driver/Inc/stm32f0xx_ll_rtc.h **** __STATIC_INLINE void LL_RTC_EnablePushPullMode(RTC_TypeDef *RTCx, uint32_t PinMask)
 834:Drivers/STM32F0xx_HAL_Driver/Inc/stm32f0xx_ll_rtc.h **** {
 835:Drivers/STM32F0xx_HAL_Driver/Inc/stm32f0xx_ll_rtc.h ****   SET_BIT(RTCx->TAFCR, PinMask);
 836:Drivers/STM32F0xx_HAL_Driver/Inc/stm32f0xx_ll_rtc.h **** }
 837:Drivers/STM32F0xx_HAL_Driver/Inc/stm32f0xx_ll_rtc.h **** 
 838:Drivers/STM32F0xx_HAL_Driver/Inc/stm32f0xx_ll_rtc.h **** /**
 839:Drivers/STM32F0xx_HAL_Driver/Inc/stm32f0xx_ll_rtc.h ****   * @brief  Disable push-pull output on PC13, PC14 and/or PC15
 840:Drivers/STM32F0xx_HAL_Driver/Inc/stm32f0xx_ll_rtc.h ****   * @note   PC13, PC14 and/or PC15 are controlled by the GPIO configuration registers.
 841:Drivers/STM32F0xx_HAL_Driver/Inc/stm32f0xx_ll_rtc.h ****   *         Consequently PC13, PC14 and/or PC15 are floating in Standby mode.
 842:Drivers/STM32F0xx_HAL_Driver/Inc/stm32f0xx_ll_rtc.h ****   * @rmtoll TAFCR        PC13MODE      LL_RTC_DisablePushPullMode\n
 843:Drivers/STM32F0xx_HAL_Driver/Inc/stm32f0xx_ll_rtc.h ****   *         TAFCR        PC14MODE      LL_RTC_DisablePushPullMode\n
 844:Drivers/STM32F0xx_HAL_Driver/Inc/stm32f0xx_ll_rtc.h ****   *         TAFCR        PC15MODE      LL_RTC_DisablePushPullMode
 845:Drivers/STM32F0xx_HAL_Driver/Inc/stm32f0xx_ll_rtc.h ****   * @param  RTCx RTC Instance
 846:Drivers/STM32F0xx_HAL_Driver/Inc/stm32f0xx_ll_rtc.h ****   * @param  PinMask This parameter can be a combination of the following values:
 847:Drivers/STM32F0xx_HAL_Driver/Inc/stm32f0xx_ll_rtc.h ****   *         @arg @ref LL_RTC_PIN_PC13
 848:Drivers/STM32F0xx_HAL_Driver/Inc/stm32f0xx_ll_rtc.h ****   *         @arg @ref LL_RTC_PIN_PC14
 849:Drivers/STM32F0xx_HAL_Driver/Inc/stm32f0xx_ll_rtc.h ****   *         @arg @ref LL_RTC_PIN_PC15
 850:Drivers/STM32F0xx_HAL_Driver/Inc/stm32f0xx_ll_rtc.h ****   * @retval None
 851:Drivers/STM32F0xx_HAL_Driver/Inc/stm32f0xx_ll_rtc.h ****   */
 852:Drivers/STM32F0xx_HAL_Driver/Inc/stm32f0xx_ll_rtc.h **** __STATIC_INLINE void LL_RTC_DisablePushPullMode(RTC_TypeDef* RTCx, uint32_t PinMask)
 853:Drivers/STM32F0xx_HAL_Driver/Inc/stm32f0xx_ll_rtc.h **** {
 854:Drivers/STM32F0xx_HAL_Driver/Inc/stm32f0xx_ll_rtc.h ****   CLEAR_BIT(RTCx->TAFCR, PinMask);
 855:Drivers/STM32F0xx_HAL_Driver/Inc/stm32f0xx_ll_rtc.h **** }
 856:Drivers/STM32F0xx_HAL_Driver/Inc/stm32f0xx_ll_rtc.h **** 
 857:Drivers/STM32F0xx_HAL_Driver/Inc/stm32f0xx_ll_rtc.h **** /**
 858:Drivers/STM32F0xx_HAL_Driver/Inc/stm32f0xx_ll_rtc.h ****   * @brief  Set PC14 and/or PC15 to high level.
 859:Drivers/STM32F0xx_HAL_Driver/Inc/stm32f0xx_ll_rtc.h ****   * @note   Output data configuration is possible if the LSE is disabled and PushPull output is ena
ARM GAS  C:\Users\strag\AppData\Local\Temp\ccM4RwII.s 			page 28


 860:Drivers/STM32F0xx_HAL_Driver/Inc/stm32f0xx_ll_rtc.h ****   * @rmtoll TAFCR        PC14VALUE     LL_RTC_SetOutputPin\n
 861:Drivers/STM32F0xx_HAL_Driver/Inc/stm32f0xx_ll_rtc.h ****   *         TAFCR        PC15VALUE     LL_RTC_SetOutputPin
 862:Drivers/STM32F0xx_HAL_Driver/Inc/stm32f0xx_ll_rtc.h ****   * @param  RTCx RTC Instance
 863:Drivers/STM32F0xx_HAL_Driver/Inc/stm32f0xx_ll_rtc.h ****   * @param  PinMask This parameter can be a combination of the following values:
 864:Drivers/STM32F0xx_HAL_Driver/Inc/stm32f0xx_ll_rtc.h ****   *         @arg @ref LL_RTC_PIN_PC14
 865:Drivers/STM32F0xx_HAL_Driver/Inc/stm32f0xx_ll_rtc.h ****   *         @arg @ref LL_RTC_PIN_PC15
 866:Drivers/STM32F0xx_HAL_Driver/Inc/stm32f0xx_ll_rtc.h ****   * @retval None
 867:Drivers/STM32F0xx_HAL_Driver/Inc/stm32f0xx_ll_rtc.h ****   */
 868:Drivers/STM32F0xx_HAL_Driver/Inc/stm32f0xx_ll_rtc.h **** __STATIC_INLINE void LL_RTC_SetOutputPin(RTC_TypeDef* RTCx, uint32_t PinMask)
 869:Drivers/STM32F0xx_HAL_Driver/Inc/stm32f0xx_ll_rtc.h **** {
 870:Drivers/STM32F0xx_HAL_Driver/Inc/stm32f0xx_ll_rtc.h ****   SET_BIT(RTCx->TAFCR, (PinMask >> 1));
 871:Drivers/STM32F0xx_HAL_Driver/Inc/stm32f0xx_ll_rtc.h **** }
 872:Drivers/STM32F0xx_HAL_Driver/Inc/stm32f0xx_ll_rtc.h **** 
 873:Drivers/STM32F0xx_HAL_Driver/Inc/stm32f0xx_ll_rtc.h **** /**
 874:Drivers/STM32F0xx_HAL_Driver/Inc/stm32f0xx_ll_rtc.h ****   * @brief  Set PC14 and/or PC15 to low level.
 875:Drivers/STM32F0xx_HAL_Driver/Inc/stm32f0xx_ll_rtc.h ****   * @note   Output data configuration is possible if the LSE is disabled and PushPull output is ena
 876:Drivers/STM32F0xx_HAL_Driver/Inc/stm32f0xx_ll_rtc.h ****   * @rmtoll TAFCR        PC14VALUE     LL_RTC_ResetOutputPin\n
 877:Drivers/STM32F0xx_HAL_Driver/Inc/stm32f0xx_ll_rtc.h ****   *         TAFCR        PC15VALUE     LL_RTC_ResetOutputPin
 878:Drivers/STM32F0xx_HAL_Driver/Inc/stm32f0xx_ll_rtc.h ****   * @param  RTCx RTC Instance
 879:Drivers/STM32F0xx_HAL_Driver/Inc/stm32f0xx_ll_rtc.h ****   * @param  PinMask This parameter can be a combination of the following values:
 880:Drivers/STM32F0xx_HAL_Driver/Inc/stm32f0xx_ll_rtc.h ****   *         @arg @ref LL_RTC_PIN_PC14
 881:Drivers/STM32F0xx_HAL_Driver/Inc/stm32f0xx_ll_rtc.h ****   *         @arg @ref LL_RTC_PIN_PC15
 882:Drivers/STM32F0xx_HAL_Driver/Inc/stm32f0xx_ll_rtc.h ****   * @retval None
 883:Drivers/STM32F0xx_HAL_Driver/Inc/stm32f0xx_ll_rtc.h ****   */
 884:Drivers/STM32F0xx_HAL_Driver/Inc/stm32f0xx_ll_rtc.h **** __STATIC_INLINE void LL_RTC_ResetOutputPin(RTC_TypeDef* RTCx, uint32_t PinMask)
 885:Drivers/STM32F0xx_HAL_Driver/Inc/stm32f0xx_ll_rtc.h **** {
 886:Drivers/STM32F0xx_HAL_Driver/Inc/stm32f0xx_ll_rtc.h ****   CLEAR_BIT(RTCx->TAFCR, (PinMask >> 1));
 887:Drivers/STM32F0xx_HAL_Driver/Inc/stm32f0xx_ll_rtc.h **** }
 888:Drivers/STM32F0xx_HAL_Driver/Inc/stm32f0xx_ll_rtc.h **** 
 889:Drivers/STM32F0xx_HAL_Driver/Inc/stm32f0xx_ll_rtc.h **** /**
 890:Drivers/STM32F0xx_HAL_Driver/Inc/stm32f0xx_ll_rtc.h ****   * @brief  Enable initialization mode
 891:Drivers/STM32F0xx_HAL_Driver/Inc/stm32f0xx_ll_rtc.h ****   * @note   Initialization mode is used to program time and date register (RTC_TR and RTC_DR)
 892:Drivers/STM32F0xx_HAL_Driver/Inc/stm32f0xx_ll_rtc.h ****   *         and prescaler register (RTC_PRER).
 893:Drivers/STM32F0xx_HAL_Driver/Inc/stm32f0xx_ll_rtc.h ****   *         Counters are stopped and start counting from the new value when INIT is reset.
 894:Drivers/STM32F0xx_HAL_Driver/Inc/stm32f0xx_ll_rtc.h ****   * @rmtoll ISR          INIT          LL_RTC_EnableInitMode
 895:Drivers/STM32F0xx_HAL_Driver/Inc/stm32f0xx_ll_rtc.h ****   * @param  RTCx RTC Instance
 896:Drivers/STM32F0xx_HAL_Driver/Inc/stm32f0xx_ll_rtc.h ****   * @retval None
 897:Drivers/STM32F0xx_HAL_Driver/Inc/stm32f0xx_ll_rtc.h ****   */
 898:Drivers/STM32F0xx_HAL_Driver/Inc/stm32f0xx_ll_rtc.h **** __STATIC_INLINE void LL_RTC_EnableInitMode(RTC_TypeDef *RTCx)
 899:Drivers/STM32F0xx_HAL_Driver/Inc/stm32f0xx_ll_rtc.h **** {
 900:Drivers/STM32F0xx_HAL_Driver/Inc/stm32f0xx_ll_rtc.h ****   /* Set the Initialization mode */
 901:Drivers/STM32F0xx_HAL_Driver/Inc/stm32f0xx_ll_rtc.h ****   WRITE_REG(RTCx->ISR, RTC_INIT_MASK);
 902:Drivers/STM32F0xx_HAL_Driver/Inc/stm32f0xx_ll_rtc.h **** }
 903:Drivers/STM32F0xx_HAL_Driver/Inc/stm32f0xx_ll_rtc.h **** 
 904:Drivers/STM32F0xx_HAL_Driver/Inc/stm32f0xx_ll_rtc.h **** /**
 905:Drivers/STM32F0xx_HAL_Driver/Inc/stm32f0xx_ll_rtc.h ****   * @brief  Disable initialization mode (Free running mode)
 906:Drivers/STM32F0xx_HAL_Driver/Inc/stm32f0xx_ll_rtc.h ****   * @rmtoll ISR          INIT          LL_RTC_DisableInitMode
 907:Drivers/STM32F0xx_HAL_Driver/Inc/stm32f0xx_ll_rtc.h ****   * @param  RTCx RTC Instance
 908:Drivers/STM32F0xx_HAL_Driver/Inc/stm32f0xx_ll_rtc.h ****   * @retval None
 909:Drivers/STM32F0xx_HAL_Driver/Inc/stm32f0xx_ll_rtc.h ****   */
 910:Drivers/STM32F0xx_HAL_Driver/Inc/stm32f0xx_ll_rtc.h **** __STATIC_INLINE void LL_RTC_DisableInitMode(RTC_TypeDef *RTCx)
 911:Drivers/STM32F0xx_HAL_Driver/Inc/stm32f0xx_ll_rtc.h **** {
 912:Drivers/STM32F0xx_HAL_Driver/Inc/stm32f0xx_ll_rtc.h ****   /* Exit Initialization mode */
 913:Drivers/STM32F0xx_HAL_Driver/Inc/stm32f0xx_ll_rtc.h ****   WRITE_REG(RTCx->ISR, (uint32_t)~RTC_ISR_INIT);
 914:Drivers/STM32F0xx_HAL_Driver/Inc/stm32f0xx_ll_rtc.h **** }
 915:Drivers/STM32F0xx_HAL_Driver/Inc/stm32f0xx_ll_rtc.h **** 
 916:Drivers/STM32F0xx_HAL_Driver/Inc/stm32f0xx_ll_rtc.h **** /**
ARM GAS  C:\Users\strag\AppData\Local\Temp\ccM4RwII.s 			page 29


 917:Drivers/STM32F0xx_HAL_Driver/Inc/stm32f0xx_ll_rtc.h ****   * @brief  Set Output polarity (pin is low when ALRAF/ALRBF/WUTF is asserted)
 918:Drivers/STM32F0xx_HAL_Driver/Inc/stm32f0xx_ll_rtc.h ****   * @note   Bit is write-protected. @ref LL_RTC_DisableWriteProtection function should be called be
 919:Drivers/STM32F0xx_HAL_Driver/Inc/stm32f0xx_ll_rtc.h ****   * @rmtoll CR           POL           LL_RTC_SetOutputPolarity
 920:Drivers/STM32F0xx_HAL_Driver/Inc/stm32f0xx_ll_rtc.h ****   * @param  RTCx RTC Instance
 921:Drivers/STM32F0xx_HAL_Driver/Inc/stm32f0xx_ll_rtc.h ****   * @param  Polarity This parameter can be one of the following values:
 922:Drivers/STM32F0xx_HAL_Driver/Inc/stm32f0xx_ll_rtc.h ****   *         @arg @ref LL_RTC_OUTPUTPOLARITY_PIN_HIGH
 923:Drivers/STM32F0xx_HAL_Driver/Inc/stm32f0xx_ll_rtc.h ****   *         @arg @ref LL_RTC_OUTPUTPOLARITY_PIN_LOW
 924:Drivers/STM32F0xx_HAL_Driver/Inc/stm32f0xx_ll_rtc.h ****   * @retval None
 925:Drivers/STM32F0xx_HAL_Driver/Inc/stm32f0xx_ll_rtc.h ****   */
 926:Drivers/STM32F0xx_HAL_Driver/Inc/stm32f0xx_ll_rtc.h **** __STATIC_INLINE void LL_RTC_SetOutputPolarity(RTC_TypeDef *RTCx, uint32_t Polarity)
 927:Drivers/STM32F0xx_HAL_Driver/Inc/stm32f0xx_ll_rtc.h **** {
 928:Drivers/STM32F0xx_HAL_Driver/Inc/stm32f0xx_ll_rtc.h ****   MODIFY_REG(RTCx->CR, RTC_CR_POL, Polarity);
 929:Drivers/STM32F0xx_HAL_Driver/Inc/stm32f0xx_ll_rtc.h **** }
 930:Drivers/STM32F0xx_HAL_Driver/Inc/stm32f0xx_ll_rtc.h **** 
 931:Drivers/STM32F0xx_HAL_Driver/Inc/stm32f0xx_ll_rtc.h **** /**
 932:Drivers/STM32F0xx_HAL_Driver/Inc/stm32f0xx_ll_rtc.h ****   * @brief  Get Output polarity
 933:Drivers/STM32F0xx_HAL_Driver/Inc/stm32f0xx_ll_rtc.h ****   * @rmtoll CR           POL           LL_RTC_GetOutputPolarity
 934:Drivers/STM32F0xx_HAL_Driver/Inc/stm32f0xx_ll_rtc.h ****   * @param  RTCx RTC Instance
 935:Drivers/STM32F0xx_HAL_Driver/Inc/stm32f0xx_ll_rtc.h ****   * @retval Returned value can be one of the following values:
 936:Drivers/STM32F0xx_HAL_Driver/Inc/stm32f0xx_ll_rtc.h ****   *         @arg @ref LL_RTC_OUTPUTPOLARITY_PIN_HIGH
 937:Drivers/STM32F0xx_HAL_Driver/Inc/stm32f0xx_ll_rtc.h ****   *         @arg @ref LL_RTC_OUTPUTPOLARITY_PIN_LOW
 938:Drivers/STM32F0xx_HAL_Driver/Inc/stm32f0xx_ll_rtc.h ****   */
 939:Drivers/STM32F0xx_HAL_Driver/Inc/stm32f0xx_ll_rtc.h **** __STATIC_INLINE uint32_t LL_RTC_GetOutputPolarity(RTC_TypeDef *RTCx)
 940:Drivers/STM32F0xx_HAL_Driver/Inc/stm32f0xx_ll_rtc.h **** {
 941:Drivers/STM32F0xx_HAL_Driver/Inc/stm32f0xx_ll_rtc.h ****   return (uint32_t)(READ_BIT(RTCx->CR, RTC_CR_POL));
 942:Drivers/STM32F0xx_HAL_Driver/Inc/stm32f0xx_ll_rtc.h **** }
 943:Drivers/STM32F0xx_HAL_Driver/Inc/stm32f0xx_ll_rtc.h **** 
 944:Drivers/STM32F0xx_HAL_Driver/Inc/stm32f0xx_ll_rtc.h **** /**
 945:Drivers/STM32F0xx_HAL_Driver/Inc/stm32f0xx_ll_rtc.h ****   * @brief  Enable Bypass the shadow registers
 946:Drivers/STM32F0xx_HAL_Driver/Inc/stm32f0xx_ll_rtc.h ****   * @note   Bit is write-protected. @ref LL_RTC_DisableWriteProtection function should be called be
 947:Drivers/STM32F0xx_HAL_Driver/Inc/stm32f0xx_ll_rtc.h ****   * @rmtoll CR           BYPSHAD       LL_RTC_EnableShadowRegBypass
 948:Drivers/STM32F0xx_HAL_Driver/Inc/stm32f0xx_ll_rtc.h ****   * @param  RTCx RTC Instance
 949:Drivers/STM32F0xx_HAL_Driver/Inc/stm32f0xx_ll_rtc.h ****   * @retval None
 950:Drivers/STM32F0xx_HAL_Driver/Inc/stm32f0xx_ll_rtc.h ****   */
 951:Drivers/STM32F0xx_HAL_Driver/Inc/stm32f0xx_ll_rtc.h **** __STATIC_INLINE void LL_RTC_EnableShadowRegBypass(RTC_TypeDef *RTCx)
 952:Drivers/STM32F0xx_HAL_Driver/Inc/stm32f0xx_ll_rtc.h **** {
 953:Drivers/STM32F0xx_HAL_Driver/Inc/stm32f0xx_ll_rtc.h ****   SET_BIT(RTCx->CR, RTC_CR_BYPSHAD);
 954:Drivers/STM32F0xx_HAL_Driver/Inc/stm32f0xx_ll_rtc.h **** }
 955:Drivers/STM32F0xx_HAL_Driver/Inc/stm32f0xx_ll_rtc.h **** 
 956:Drivers/STM32F0xx_HAL_Driver/Inc/stm32f0xx_ll_rtc.h **** /**
 957:Drivers/STM32F0xx_HAL_Driver/Inc/stm32f0xx_ll_rtc.h ****   * @brief  Disable Bypass the shadow registers
 958:Drivers/STM32F0xx_HAL_Driver/Inc/stm32f0xx_ll_rtc.h ****   * @rmtoll CR           BYPSHAD       LL_RTC_DisableShadowRegBypass
 959:Drivers/STM32F0xx_HAL_Driver/Inc/stm32f0xx_ll_rtc.h ****   * @param  RTCx RTC Instance
 960:Drivers/STM32F0xx_HAL_Driver/Inc/stm32f0xx_ll_rtc.h ****   * @retval None
 961:Drivers/STM32F0xx_HAL_Driver/Inc/stm32f0xx_ll_rtc.h ****   */
 962:Drivers/STM32F0xx_HAL_Driver/Inc/stm32f0xx_ll_rtc.h **** __STATIC_INLINE void LL_RTC_DisableShadowRegBypass(RTC_TypeDef *RTCx)
 963:Drivers/STM32F0xx_HAL_Driver/Inc/stm32f0xx_ll_rtc.h **** {
 964:Drivers/STM32F0xx_HAL_Driver/Inc/stm32f0xx_ll_rtc.h ****   CLEAR_BIT(RTCx->CR, RTC_CR_BYPSHAD);
 965:Drivers/STM32F0xx_HAL_Driver/Inc/stm32f0xx_ll_rtc.h **** }
 966:Drivers/STM32F0xx_HAL_Driver/Inc/stm32f0xx_ll_rtc.h **** 
 967:Drivers/STM32F0xx_HAL_Driver/Inc/stm32f0xx_ll_rtc.h **** /**
 968:Drivers/STM32F0xx_HAL_Driver/Inc/stm32f0xx_ll_rtc.h ****   * @brief  Check if Shadow registers bypass is enabled or not.
 969:Drivers/STM32F0xx_HAL_Driver/Inc/stm32f0xx_ll_rtc.h ****   * @rmtoll CR           BYPSHAD       LL_RTC_IsShadowRegBypassEnabled
 970:Drivers/STM32F0xx_HAL_Driver/Inc/stm32f0xx_ll_rtc.h ****   * @param  RTCx RTC Instance
 971:Drivers/STM32F0xx_HAL_Driver/Inc/stm32f0xx_ll_rtc.h ****   * @retval State of bit (1 or 0).
 972:Drivers/STM32F0xx_HAL_Driver/Inc/stm32f0xx_ll_rtc.h ****   */
 973:Drivers/STM32F0xx_HAL_Driver/Inc/stm32f0xx_ll_rtc.h **** __STATIC_INLINE uint32_t LL_RTC_IsShadowRegBypassEnabled(RTC_TypeDef *RTCx)
ARM GAS  C:\Users\strag\AppData\Local\Temp\ccM4RwII.s 			page 30


 974:Drivers/STM32F0xx_HAL_Driver/Inc/stm32f0xx_ll_rtc.h **** {
 975:Drivers/STM32F0xx_HAL_Driver/Inc/stm32f0xx_ll_rtc.h ****   return (READ_BIT(RTCx->CR, RTC_CR_BYPSHAD) == (RTC_CR_BYPSHAD));
 976:Drivers/STM32F0xx_HAL_Driver/Inc/stm32f0xx_ll_rtc.h **** }
 977:Drivers/STM32F0xx_HAL_Driver/Inc/stm32f0xx_ll_rtc.h **** 
 978:Drivers/STM32F0xx_HAL_Driver/Inc/stm32f0xx_ll_rtc.h **** /**
 979:Drivers/STM32F0xx_HAL_Driver/Inc/stm32f0xx_ll_rtc.h ****   * @brief  Enable RTC_REFIN reference clock detection (50 or 60 Hz)
 980:Drivers/STM32F0xx_HAL_Driver/Inc/stm32f0xx_ll_rtc.h ****   * @note   Bit is write-protected. @ref LL_RTC_DisableWriteProtection function should be called be
 981:Drivers/STM32F0xx_HAL_Driver/Inc/stm32f0xx_ll_rtc.h ****   * @note   It can be written in initialization mode only (@ref LL_RTC_EnableInitMode function)
 982:Drivers/STM32F0xx_HAL_Driver/Inc/stm32f0xx_ll_rtc.h ****   * @rmtoll CR           REFCKON       LL_RTC_EnableRefClock
 983:Drivers/STM32F0xx_HAL_Driver/Inc/stm32f0xx_ll_rtc.h ****   * @param  RTCx RTC Instance
 984:Drivers/STM32F0xx_HAL_Driver/Inc/stm32f0xx_ll_rtc.h ****   * @retval None
 985:Drivers/STM32F0xx_HAL_Driver/Inc/stm32f0xx_ll_rtc.h ****   */
 986:Drivers/STM32F0xx_HAL_Driver/Inc/stm32f0xx_ll_rtc.h **** __STATIC_INLINE void LL_RTC_EnableRefClock(RTC_TypeDef *RTCx)
 987:Drivers/STM32F0xx_HAL_Driver/Inc/stm32f0xx_ll_rtc.h **** {
 988:Drivers/STM32F0xx_HAL_Driver/Inc/stm32f0xx_ll_rtc.h ****   SET_BIT(RTCx->CR, RTC_CR_REFCKON);
 989:Drivers/STM32F0xx_HAL_Driver/Inc/stm32f0xx_ll_rtc.h **** }
 990:Drivers/STM32F0xx_HAL_Driver/Inc/stm32f0xx_ll_rtc.h **** 
 991:Drivers/STM32F0xx_HAL_Driver/Inc/stm32f0xx_ll_rtc.h **** /**
 992:Drivers/STM32F0xx_HAL_Driver/Inc/stm32f0xx_ll_rtc.h ****   * @brief  Disable RTC_REFIN reference clock detection (50 or 60 Hz)
 993:Drivers/STM32F0xx_HAL_Driver/Inc/stm32f0xx_ll_rtc.h ****   * @note   Bit is write-protected. @ref LL_RTC_DisableWriteProtection function should be called be
 994:Drivers/STM32F0xx_HAL_Driver/Inc/stm32f0xx_ll_rtc.h ****   * @note   It can be written in initialization mode only (@ref LL_RTC_EnableInitMode function)
 995:Drivers/STM32F0xx_HAL_Driver/Inc/stm32f0xx_ll_rtc.h ****   * @rmtoll CR           REFCKON       LL_RTC_DisableRefClock
 996:Drivers/STM32F0xx_HAL_Driver/Inc/stm32f0xx_ll_rtc.h ****   * @param  RTCx RTC Instance
 997:Drivers/STM32F0xx_HAL_Driver/Inc/stm32f0xx_ll_rtc.h ****   * @retval None
 998:Drivers/STM32F0xx_HAL_Driver/Inc/stm32f0xx_ll_rtc.h ****   */
 999:Drivers/STM32F0xx_HAL_Driver/Inc/stm32f0xx_ll_rtc.h **** __STATIC_INLINE void LL_RTC_DisableRefClock(RTC_TypeDef *RTCx)
1000:Drivers/STM32F0xx_HAL_Driver/Inc/stm32f0xx_ll_rtc.h **** {
1001:Drivers/STM32F0xx_HAL_Driver/Inc/stm32f0xx_ll_rtc.h ****   CLEAR_BIT(RTCx->CR, RTC_CR_REFCKON);
1002:Drivers/STM32F0xx_HAL_Driver/Inc/stm32f0xx_ll_rtc.h **** }
1003:Drivers/STM32F0xx_HAL_Driver/Inc/stm32f0xx_ll_rtc.h **** 
1004:Drivers/STM32F0xx_HAL_Driver/Inc/stm32f0xx_ll_rtc.h **** /**
1005:Drivers/STM32F0xx_HAL_Driver/Inc/stm32f0xx_ll_rtc.h ****   * @brief  Set Asynchronous prescaler factor
1006:Drivers/STM32F0xx_HAL_Driver/Inc/stm32f0xx_ll_rtc.h ****   * @rmtoll PRER         PREDIV_A      LL_RTC_SetAsynchPrescaler
1007:Drivers/STM32F0xx_HAL_Driver/Inc/stm32f0xx_ll_rtc.h ****   * @param  RTCx RTC Instance
1008:Drivers/STM32F0xx_HAL_Driver/Inc/stm32f0xx_ll_rtc.h ****   * @param  AsynchPrescaler Value between Min_Data = 0 and Max_Data = 0x7F
1009:Drivers/STM32F0xx_HAL_Driver/Inc/stm32f0xx_ll_rtc.h ****   * @retval None
1010:Drivers/STM32F0xx_HAL_Driver/Inc/stm32f0xx_ll_rtc.h ****   */
1011:Drivers/STM32F0xx_HAL_Driver/Inc/stm32f0xx_ll_rtc.h **** __STATIC_INLINE void LL_RTC_SetAsynchPrescaler(RTC_TypeDef *RTCx, uint32_t AsynchPrescaler)
1012:Drivers/STM32F0xx_HAL_Driver/Inc/stm32f0xx_ll_rtc.h **** {
1013:Drivers/STM32F0xx_HAL_Driver/Inc/stm32f0xx_ll_rtc.h ****   MODIFY_REG(RTCx->PRER, RTC_PRER_PREDIV_A, AsynchPrescaler << RTC_PRER_PREDIV_A_Pos);
1014:Drivers/STM32F0xx_HAL_Driver/Inc/stm32f0xx_ll_rtc.h **** }
1015:Drivers/STM32F0xx_HAL_Driver/Inc/stm32f0xx_ll_rtc.h **** 
1016:Drivers/STM32F0xx_HAL_Driver/Inc/stm32f0xx_ll_rtc.h **** /**
1017:Drivers/STM32F0xx_HAL_Driver/Inc/stm32f0xx_ll_rtc.h ****   * @brief  Set Synchronous prescaler factor
1018:Drivers/STM32F0xx_HAL_Driver/Inc/stm32f0xx_ll_rtc.h ****   * @rmtoll PRER         PREDIV_S      LL_RTC_SetSynchPrescaler
1019:Drivers/STM32F0xx_HAL_Driver/Inc/stm32f0xx_ll_rtc.h ****   * @param  RTCx RTC Instance
1020:Drivers/STM32F0xx_HAL_Driver/Inc/stm32f0xx_ll_rtc.h ****   * @param  SynchPrescaler Value between Min_Data = 0 and Max_Data = 0x7FFF
1021:Drivers/STM32F0xx_HAL_Driver/Inc/stm32f0xx_ll_rtc.h ****   * @retval None
1022:Drivers/STM32F0xx_HAL_Driver/Inc/stm32f0xx_ll_rtc.h ****   */
1023:Drivers/STM32F0xx_HAL_Driver/Inc/stm32f0xx_ll_rtc.h **** __STATIC_INLINE void LL_RTC_SetSynchPrescaler(RTC_TypeDef *RTCx, uint32_t SynchPrescaler)
1024:Drivers/STM32F0xx_HAL_Driver/Inc/stm32f0xx_ll_rtc.h **** {
1025:Drivers/STM32F0xx_HAL_Driver/Inc/stm32f0xx_ll_rtc.h ****   MODIFY_REG(RTCx->PRER, RTC_PRER_PREDIV_S, SynchPrescaler);
1026:Drivers/STM32F0xx_HAL_Driver/Inc/stm32f0xx_ll_rtc.h **** }
1027:Drivers/STM32F0xx_HAL_Driver/Inc/stm32f0xx_ll_rtc.h **** 
1028:Drivers/STM32F0xx_HAL_Driver/Inc/stm32f0xx_ll_rtc.h **** /**
1029:Drivers/STM32F0xx_HAL_Driver/Inc/stm32f0xx_ll_rtc.h ****   * @brief  Get Asynchronous prescaler factor
1030:Drivers/STM32F0xx_HAL_Driver/Inc/stm32f0xx_ll_rtc.h ****   * @rmtoll PRER         PREDIV_A      LL_RTC_GetAsynchPrescaler
ARM GAS  C:\Users\strag\AppData\Local\Temp\ccM4RwII.s 			page 31


1031:Drivers/STM32F0xx_HAL_Driver/Inc/stm32f0xx_ll_rtc.h ****   * @param  RTCx RTC Instance
1032:Drivers/STM32F0xx_HAL_Driver/Inc/stm32f0xx_ll_rtc.h ****   * @retval Value between Min_Data = 0 and Max_Data = 0x7F
1033:Drivers/STM32F0xx_HAL_Driver/Inc/stm32f0xx_ll_rtc.h ****   */
1034:Drivers/STM32F0xx_HAL_Driver/Inc/stm32f0xx_ll_rtc.h **** __STATIC_INLINE uint32_t LL_RTC_GetAsynchPrescaler(RTC_TypeDef *RTCx)
1035:Drivers/STM32F0xx_HAL_Driver/Inc/stm32f0xx_ll_rtc.h **** {
1036:Drivers/STM32F0xx_HAL_Driver/Inc/stm32f0xx_ll_rtc.h ****   return (uint32_t)(READ_BIT(RTCx->PRER, RTC_PRER_PREDIV_A) >> RTC_PRER_PREDIV_A_Pos);
1037:Drivers/STM32F0xx_HAL_Driver/Inc/stm32f0xx_ll_rtc.h **** }
1038:Drivers/STM32F0xx_HAL_Driver/Inc/stm32f0xx_ll_rtc.h **** 
1039:Drivers/STM32F0xx_HAL_Driver/Inc/stm32f0xx_ll_rtc.h **** /**
1040:Drivers/STM32F0xx_HAL_Driver/Inc/stm32f0xx_ll_rtc.h ****   * @brief  Get Synchronous prescaler factor
1041:Drivers/STM32F0xx_HAL_Driver/Inc/stm32f0xx_ll_rtc.h ****   * @rmtoll PRER         PREDIV_S      LL_RTC_GetSynchPrescaler
1042:Drivers/STM32F0xx_HAL_Driver/Inc/stm32f0xx_ll_rtc.h ****   * @param  RTCx RTC Instance
1043:Drivers/STM32F0xx_HAL_Driver/Inc/stm32f0xx_ll_rtc.h ****   * @retval Value between Min_Data = 0 and Max_Data = 0x7FFF
1044:Drivers/STM32F0xx_HAL_Driver/Inc/stm32f0xx_ll_rtc.h ****   */
1045:Drivers/STM32F0xx_HAL_Driver/Inc/stm32f0xx_ll_rtc.h **** __STATIC_INLINE uint32_t LL_RTC_GetSynchPrescaler(RTC_TypeDef *RTCx)
1046:Drivers/STM32F0xx_HAL_Driver/Inc/stm32f0xx_ll_rtc.h **** {
1047:Drivers/STM32F0xx_HAL_Driver/Inc/stm32f0xx_ll_rtc.h ****   return (uint32_t)(READ_BIT(RTCx->PRER, RTC_PRER_PREDIV_S));
1048:Drivers/STM32F0xx_HAL_Driver/Inc/stm32f0xx_ll_rtc.h **** }
1049:Drivers/STM32F0xx_HAL_Driver/Inc/stm32f0xx_ll_rtc.h **** 
1050:Drivers/STM32F0xx_HAL_Driver/Inc/stm32f0xx_ll_rtc.h **** /**
1051:Drivers/STM32F0xx_HAL_Driver/Inc/stm32f0xx_ll_rtc.h ****   * @brief  Enable the write protection for RTC registers.
1052:Drivers/STM32F0xx_HAL_Driver/Inc/stm32f0xx_ll_rtc.h ****   * @rmtoll WPR          KEY           LL_RTC_EnableWriteProtection
1053:Drivers/STM32F0xx_HAL_Driver/Inc/stm32f0xx_ll_rtc.h ****   * @param  RTCx RTC Instance
1054:Drivers/STM32F0xx_HAL_Driver/Inc/stm32f0xx_ll_rtc.h ****   * @retval None
1055:Drivers/STM32F0xx_HAL_Driver/Inc/stm32f0xx_ll_rtc.h ****   */
1056:Drivers/STM32F0xx_HAL_Driver/Inc/stm32f0xx_ll_rtc.h **** __STATIC_INLINE void LL_RTC_EnableWriteProtection(RTC_TypeDef *RTCx)
1057:Drivers/STM32F0xx_HAL_Driver/Inc/stm32f0xx_ll_rtc.h **** {
1058:Drivers/STM32F0xx_HAL_Driver/Inc/stm32f0xx_ll_rtc.h ****   WRITE_REG(RTCx->WPR, RTC_WRITE_PROTECTION_DISABLE);
1059:Drivers/STM32F0xx_HAL_Driver/Inc/stm32f0xx_ll_rtc.h **** }
1060:Drivers/STM32F0xx_HAL_Driver/Inc/stm32f0xx_ll_rtc.h **** 
1061:Drivers/STM32F0xx_HAL_Driver/Inc/stm32f0xx_ll_rtc.h **** /**
1062:Drivers/STM32F0xx_HAL_Driver/Inc/stm32f0xx_ll_rtc.h ****   * @brief  Disable the write protection for RTC registers.
1063:Drivers/STM32F0xx_HAL_Driver/Inc/stm32f0xx_ll_rtc.h ****   * @rmtoll WPR          KEY           LL_RTC_DisableWriteProtection
1064:Drivers/STM32F0xx_HAL_Driver/Inc/stm32f0xx_ll_rtc.h ****   * @param  RTCx RTC Instance
1065:Drivers/STM32F0xx_HAL_Driver/Inc/stm32f0xx_ll_rtc.h ****   * @retval None
1066:Drivers/STM32F0xx_HAL_Driver/Inc/stm32f0xx_ll_rtc.h ****   */
1067:Drivers/STM32F0xx_HAL_Driver/Inc/stm32f0xx_ll_rtc.h **** __STATIC_INLINE void LL_RTC_DisableWriteProtection(RTC_TypeDef *RTCx)
1068:Drivers/STM32F0xx_HAL_Driver/Inc/stm32f0xx_ll_rtc.h **** {
1069:Drivers/STM32F0xx_HAL_Driver/Inc/stm32f0xx_ll_rtc.h ****   WRITE_REG(RTCx->WPR, RTC_WRITE_PROTECTION_ENABLE_1);
 181              		.loc 2 1069 0
 182 002a CA23     		movs	r3, #202
 183 002c 6362     		str	r3, [r4, #36]
1070:Drivers/STM32F0xx_HAL_Driver/Inc/stm32f0xx_ll_rtc.h ****   WRITE_REG(RTCx->WPR, RTC_WRITE_PROTECTION_ENABLE_2);
 184              		.loc 2 1070 0
 185 002e 773B     		subs	r3, r3, #119
 186 0030 6362     		str	r3, [r4, #36]
 187              	.LVL9:
 188              	.LBE101:
 189              	.LBE100:
 508:Drivers/STM32F0xx_HAL_Driver/Src/stm32f0xx_ll_rtc.c ****       assert_param(IS_LL_RTC_HOUR24(__LL_RTC_CONVERT_BCD2BIN(RTC_AlarmStruct->AlarmTime.Hours)));
 509:Drivers/STM32F0xx_HAL_Driver/Src/stm32f0xx_ll_rtc.c ****     }
 510:Drivers/STM32F0xx_HAL_Driver/Src/stm32f0xx_ll_rtc.c **** 
 511:Drivers/STM32F0xx_HAL_Driver/Src/stm32f0xx_ll_rtc.c ****     assert_param(IS_LL_RTC_MINUTES(__LL_RTC_CONVERT_BCD2BIN(RTC_AlarmStruct->AlarmTime.Minutes)));
 512:Drivers/STM32F0xx_HAL_Driver/Src/stm32f0xx_ll_rtc.c ****     assert_param(IS_LL_RTC_SECONDS(__LL_RTC_CONVERT_BCD2BIN(RTC_AlarmStruct->AlarmTime.Seconds)));
 513:Drivers/STM32F0xx_HAL_Driver/Src/stm32f0xx_ll_rtc.c **** 
 514:Drivers/STM32F0xx_HAL_Driver/Src/stm32f0xx_ll_rtc.c ****     if (RTC_AlarmStruct->AlarmDateWeekDaySel == LL_RTC_ALMA_DATEWEEKDAYSEL_DATE)
 515:Drivers/STM32F0xx_HAL_Driver/Src/stm32f0xx_ll_rtc.c ****     {
ARM GAS  C:\Users\strag\AppData\Local\Temp\ccM4RwII.s 			page 32


 516:Drivers/STM32F0xx_HAL_Driver/Src/stm32f0xx_ll_rtc.c ****       assert_param(IS_LL_RTC_DAY(__LL_RTC_CONVERT_BCD2BIN(RTC_AlarmStruct->AlarmDateWeekDay)));
 517:Drivers/STM32F0xx_HAL_Driver/Src/stm32f0xx_ll_rtc.c ****     }
 518:Drivers/STM32F0xx_HAL_Driver/Src/stm32f0xx_ll_rtc.c ****     else
 519:Drivers/STM32F0xx_HAL_Driver/Src/stm32f0xx_ll_rtc.c ****     {
 520:Drivers/STM32F0xx_HAL_Driver/Src/stm32f0xx_ll_rtc.c ****       assert_param(IS_LL_RTC_WEEKDAY(__LL_RTC_CONVERT_BCD2BIN(RTC_AlarmStruct->AlarmDateWeekDay)));
 521:Drivers/STM32F0xx_HAL_Driver/Src/stm32f0xx_ll_rtc.c ****     }
 522:Drivers/STM32F0xx_HAL_Driver/Src/stm32f0xx_ll_rtc.c ****   }
 523:Drivers/STM32F0xx_HAL_Driver/Src/stm32f0xx_ll_rtc.c **** 
 524:Drivers/STM32F0xx_HAL_Driver/Src/stm32f0xx_ll_rtc.c ****   /* Disable the write protection for RTC registers */
 525:Drivers/STM32F0xx_HAL_Driver/Src/stm32f0xx_ll_rtc.c ****   LL_RTC_DisableWriteProtection(RTCx);
 526:Drivers/STM32F0xx_HAL_Driver/Src/stm32f0xx_ll_rtc.c **** 
 527:Drivers/STM32F0xx_HAL_Driver/Src/stm32f0xx_ll_rtc.c ****   /* Select weekday selection */
 528:Drivers/STM32F0xx_HAL_Driver/Src/stm32f0xx_ll_rtc.c ****   if (RTC_AlarmStruct->AlarmDateWeekDaySel == LL_RTC_ALMA_DATEWEEKDAYSEL_DATE)
 190              		.loc 1 528 0
 191 0032 EB68     		ldr	r3, [r5, #12]
 192 0034 002B     		cmp	r3, #0
 193 0036 21D1     		bne	.L9
 194              	.LVL10:
 195              	.LBB102:
 196              	.LBB103:
1071:Drivers/STM32F0xx_HAL_Driver/Inc/stm32f0xx_ll_rtc.h **** }
1072:Drivers/STM32F0xx_HAL_Driver/Inc/stm32f0xx_ll_rtc.h **** 
1073:Drivers/STM32F0xx_HAL_Driver/Inc/stm32f0xx_ll_rtc.h **** /**
1074:Drivers/STM32F0xx_HAL_Driver/Inc/stm32f0xx_ll_rtc.h ****   * @}
1075:Drivers/STM32F0xx_HAL_Driver/Inc/stm32f0xx_ll_rtc.h ****   */
1076:Drivers/STM32F0xx_HAL_Driver/Inc/stm32f0xx_ll_rtc.h **** 
1077:Drivers/STM32F0xx_HAL_Driver/Inc/stm32f0xx_ll_rtc.h **** /** @defgroup RTC_LL_EF_Time Time
1078:Drivers/STM32F0xx_HAL_Driver/Inc/stm32f0xx_ll_rtc.h ****   * @{
1079:Drivers/STM32F0xx_HAL_Driver/Inc/stm32f0xx_ll_rtc.h ****   */
1080:Drivers/STM32F0xx_HAL_Driver/Inc/stm32f0xx_ll_rtc.h **** 
1081:Drivers/STM32F0xx_HAL_Driver/Inc/stm32f0xx_ll_rtc.h **** /**
1082:Drivers/STM32F0xx_HAL_Driver/Inc/stm32f0xx_ll_rtc.h ****   * @brief  Set time format (AM/24-hour or PM notation)
1083:Drivers/STM32F0xx_HAL_Driver/Inc/stm32f0xx_ll_rtc.h ****   * @note   Bit is write-protected. @ref LL_RTC_DisableWriteProtection function should be called be
1084:Drivers/STM32F0xx_HAL_Driver/Inc/stm32f0xx_ll_rtc.h ****   * @note   It can be written in initialization mode only (@ref LL_RTC_EnableInitMode function)
1085:Drivers/STM32F0xx_HAL_Driver/Inc/stm32f0xx_ll_rtc.h ****   * @rmtoll TR           PM            LL_RTC_TIME_SetFormat
1086:Drivers/STM32F0xx_HAL_Driver/Inc/stm32f0xx_ll_rtc.h ****   * @param  RTCx RTC Instance
1087:Drivers/STM32F0xx_HAL_Driver/Inc/stm32f0xx_ll_rtc.h ****   * @param  TimeFormat This parameter can be one of the following values:
1088:Drivers/STM32F0xx_HAL_Driver/Inc/stm32f0xx_ll_rtc.h ****   *         @arg @ref LL_RTC_TIME_FORMAT_AM_OR_24
1089:Drivers/STM32F0xx_HAL_Driver/Inc/stm32f0xx_ll_rtc.h ****   *         @arg @ref LL_RTC_TIME_FORMAT_PM
1090:Drivers/STM32F0xx_HAL_Driver/Inc/stm32f0xx_ll_rtc.h ****   * @retval None
1091:Drivers/STM32F0xx_HAL_Driver/Inc/stm32f0xx_ll_rtc.h ****   */
1092:Drivers/STM32F0xx_HAL_Driver/Inc/stm32f0xx_ll_rtc.h **** __STATIC_INLINE void LL_RTC_TIME_SetFormat(RTC_TypeDef *RTCx, uint32_t TimeFormat)
1093:Drivers/STM32F0xx_HAL_Driver/Inc/stm32f0xx_ll_rtc.h **** {
1094:Drivers/STM32F0xx_HAL_Driver/Inc/stm32f0xx_ll_rtc.h ****   MODIFY_REG(RTCx->TR, RTC_TR_PM, TimeFormat);
1095:Drivers/STM32F0xx_HAL_Driver/Inc/stm32f0xx_ll_rtc.h **** }
1096:Drivers/STM32F0xx_HAL_Driver/Inc/stm32f0xx_ll_rtc.h **** 
1097:Drivers/STM32F0xx_HAL_Driver/Inc/stm32f0xx_ll_rtc.h **** /**
1098:Drivers/STM32F0xx_HAL_Driver/Inc/stm32f0xx_ll_rtc.h ****   * @brief  Get time format (AM or PM notation)
1099:Drivers/STM32F0xx_HAL_Driver/Inc/stm32f0xx_ll_rtc.h ****   * @note if shadow mode is disabled (BYPSHAD=0), need to check if RSF flag is set
1100:Drivers/STM32F0xx_HAL_Driver/Inc/stm32f0xx_ll_rtc.h ****   *       before reading this bit
1101:Drivers/STM32F0xx_HAL_Driver/Inc/stm32f0xx_ll_rtc.h ****   * @note Read either RTC_SSR or RTC_TR locks the values in the higher-order calendar
1102:Drivers/STM32F0xx_HAL_Driver/Inc/stm32f0xx_ll_rtc.h ****   *       shadow registers until RTC_DR is read (LL_RTC_ReadReg(RTC, DR)).
1103:Drivers/STM32F0xx_HAL_Driver/Inc/stm32f0xx_ll_rtc.h ****   * @rmtoll TR           PM            LL_RTC_TIME_GetFormat
1104:Drivers/STM32F0xx_HAL_Driver/Inc/stm32f0xx_ll_rtc.h ****   * @param  RTCx RTC Instance
1105:Drivers/STM32F0xx_HAL_Driver/Inc/stm32f0xx_ll_rtc.h ****   * @retval Returned value can be one of the following values:
1106:Drivers/STM32F0xx_HAL_Driver/Inc/stm32f0xx_ll_rtc.h ****   *         @arg @ref LL_RTC_TIME_FORMAT_AM_OR_24
1107:Drivers/STM32F0xx_HAL_Driver/Inc/stm32f0xx_ll_rtc.h ****   *         @arg @ref LL_RTC_TIME_FORMAT_PM
ARM GAS  C:\Users\strag\AppData\Local\Temp\ccM4RwII.s 			page 33


1108:Drivers/STM32F0xx_HAL_Driver/Inc/stm32f0xx_ll_rtc.h ****   */
1109:Drivers/STM32F0xx_HAL_Driver/Inc/stm32f0xx_ll_rtc.h **** __STATIC_INLINE uint32_t LL_RTC_TIME_GetFormat(RTC_TypeDef *RTCx)
1110:Drivers/STM32F0xx_HAL_Driver/Inc/stm32f0xx_ll_rtc.h **** {
1111:Drivers/STM32F0xx_HAL_Driver/Inc/stm32f0xx_ll_rtc.h ****   return (uint32_t)(READ_BIT(RTCx->TR, RTC_TR_PM));
1112:Drivers/STM32F0xx_HAL_Driver/Inc/stm32f0xx_ll_rtc.h **** }
1113:Drivers/STM32F0xx_HAL_Driver/Inc/stm32f0xx_ll_rtc.h **** 
1114:Drivers/STM32F0xx_HAL_Driver/Inc/stm32f0xx_ll_rtc.h **** /**
1115:Drivers/STM32F0xx_HAL_Driver/Inc/stm32f0xx_ll_rtc.h ****   * @brief  Set Hours in BCD format
1116:Drivers/STM32F0xx_HAL_Driver/Inc/stm32f0xx_ll_rtc.h ****   * @note   Bit is write-protected. @ref LL_RTC_DisableWriteProtection function should be called be
1117:Drivers/STM32F0xx_HAL_Driver/Inc/stm32f0xx_ll_rtc.h ****   * @note   It can be written in initialization mode only (@ref LL_RTC_EnableInitMode function)
1118:Drivers/STM32F0xx_HAL_Driver/Inc/stm32f0xx_ll_rtc.h ****   * @note helper macro __LL_RTC_CONVERT_BIN2BCD is available to convert hour from binary to BCD for
1119:Drivers/STM32F0xx_HAL_Driver/Inc/stm32f0xx_ll_rtc.h ****   * @rmtoll TR           HT            LL_RTC_TIME_SetHour\n
1120:Drivers/STM32F0xx_HAL_Driver/Inc/stm32f0xx_ll_rtc.h ****   *         TR           HU            LL_RTC_TIME_SetHour
1121:Drivers/STM32F0xx_HAL_Driver/Inc/stm32f0xx_ll_rtc.h ****   * @param  RTCx RTC Instance
1122:Drivers/STM32F0xx_HAL_Driver/Inc/stm32f0xx_ll_rtc.h ****   * @param  Hours Value between Min_Data=0x01 and Max_Data=0x12 or between Min_Data=0x00 and Max_Da
1123:Drivers/STM32F0xx_HAL_Driver/Inc/stm32f0xx_ll_rtc.h ****   * @retval None
1124:Drivers/STM32F0xx_HAL_Driver/Inc/stm32f0xx_ll_rtc.h ****   */
1125:Drivers/STM32F0xx_HAL_Driver/Inc/stm32f0xx_ll_rtc.h **** __STATIC_INLINE void LL_RTC_TIME_SetHour(RTC_TypeDef *RTCx, uint32_t Hours)
1126:Drivers/STM32F0xx_HAL_Driver/Inc/stm32f0xx_ll_rtc.h **** {
1127:Drivers/STM32F0xx_HAL_Driver/Inc/stm32f0xx_ll_rtc.h ****   MODIFY_REG(RTCx->TR, (RTC_TR_HT | RTC_TR_HU),
1128:Drivers/STM32F0xx_HAL_Driver/Inc/stm32f0xx_ll_rtc.h ****              (((Hours & 0xF0U) << (RTC_TR_HT_Pos - 4U)) | ((Hours & 0x0FU) << RTC_TR_HU_Pos)));
1129:Drivers/STM32F0xx_HAL_Driver/Inc/stm32f0xx_ll_rtc.h **** }
1130:Drivers/STM32F0xx_HAL_Driver/Inc/stm32f0xx_ll_rtc.h **** 
1131:Drivers/STM32F0xx_HAL_Driver/Inc/stm32f0xx_ll_rtc.h **** /**
1132:Drivers/STM32F0xx_HAL_Driver/Inc/stm32f0xx_ll_rtc.h ****   * @brief  Get Hours in BCD format
1133:Drivers/STM32F0xx_HAL_Driver/Inc/stm32f0xx_ll_rtc.h ****   * @note if shadow mode is disabled (BYPSHAD=0), need to check if RSF flag is set
1134:Drivers/STM32F0xx_HAL_Driver/Inc/stm32f0xx_ll_rtc.h ****   *       before reading this bit
1135:Drivers/STM32F0xx_HAL_Driver/Inc/stm32f0xx_ll_rtc.h ****   * @note Read either RTC_SSR or RTC_TR locks the values in the higher-order calendar
1136:Drivers/STM32F0xx_HAL_Driver/Inc/stm32f0xx_ll_rtc.h ****   *       shadow registers until RTC_DR is read (LL_RTC_ReadReg(RTC, DR)).
1137:Drivers/STM32F0xx_HAL_Driver/Inc/stm32f0xx_ll_rtc.h ****   * @note helper macro __LL_RTC_CONVERT_BCD2BIN is available to convert hour from BCD to
1138:Drivers/STM32F0xx_HAL_Driver/Inc/stm32f0xx_ll_rtc.h ****   *       Binary format
1139:Drivers/STM32F0xx_HAL_Driver/Inc/stm32f0xx_ll_rtc.h ****   * @rmtoll TR           HT            LL_RTC_TIME_GetHour\n
1140:Drivers/STM32F0xx_HAL_Driver/Inc/stm32f0xx_ll_rtc.h ****   *         TR           HU            LL_RTC_TIME_GetHour
1141:Drivers/STM32F0xx_HAL_Driver/Inc/stm32f0xx_ll_rtc.h ****   * @param  RTCx RTC Instance
1142:Drivers/STM32F0xx_HAL_Driver/Inc/stm32f0xx_ll_rtc.h ****   * @retval Value between Min_Data=0x01 and Max_Data=0x12 or between Min_Data=0x00 and Max_Data=0x2
1143:Drivers/STM32F0xx_HAL_Driver/Inc/stm32f0xx_ll_rtc.h ****   */
1144:Drivers/STM32F0xx_HAL_Driver/Inc/stm32f0xx_ll_rtc.h **** __STATIC_INLINE uint32_t LL_RTC_TIME_GetHour(RTC_TypeDef *RTCx)
1145:Drivers/STM32F0xx_HAL_Driver/Inc/stm32f0xx_ll_rtc.h **** {
1146:Drivers/STM32F0xx_HAL_Driver/Inc/stm32f0xx_ll_rtc.h ****   register uint32_t temp = 0U;
1147:Drivers/STM32F0xx_HAL_Driver/Inc/stm32f0xx_ll_rtc.h **** 
1148:Drivers/STM32F0xx_HAL_Driver/Inc/stm32f0xx_ll_rtc.h ****   temp = READ_BIT(RTCx->TR, (RTC_TR_HT | RTC_TR_HU));
1149:Drivers/STM32F0xx_HAL_Driver/Inc/stm32f0xx_ll_rtc.h ****   return (uint32_t)((((temp & RTC_TR_HT) >> RTC_TR_HT_Pos) << 4U) | ((temp & RTC_TR_HU) >> RTC_TR_H
1150:Drivers/STM32F0xx_HAL_Driver/Inc/stm32f0xx_ll_rtc.h **** }
1151:Drivers/STM32F0xx_HAL_Driver/Inc/stm32f0xx_ll_rtc.h **** 
1152:Drivers/STM32F0xx_HAL_Driver/Inc/stm32f0xx_ll_rtc.h **** /**
1153:Drivers/STM32F0xx_HAL_Driver/Inc/stm32f0xx_ll_rtc.h ****   * @brief  Set Minutes in BCD format
1154:Drivers/STM32F0xx_HAL_Driver/Inc/stm32f0xx_ll_rtc.h ****   * @note   Bit is write-protected. @ref LL_RTC_DisableWriteProtection function should be called be
1155:Drivers/STM32F0xx_HAL_Driver/Inc/stm32f0xx_ll_rtc.h ****   * @note   It can be written in initialization mode only (@ref LL_RTC_EnableInitMode function)
1156:Drivers/STM32F0xx_HAL_Driver/Inc/stm32f0xx_ll_rtc.h ****   * @note helper macro __LL_RTC_CONVERT_BIN2BCD is available to convert Minutes from binary to BCD 
1157:Drivers/STM32F0xx_HAL_Driver/Inc/stm32f0xx_ll_rtc.h ****   * @rmtoll TR           MNT           LL_RTC_TIME_SetMinute\n
1158:Drivers/STM32F0xx_HAL_Driver/Inc/stm32f0xx_ll_rtc.h ****   *         TR           MNU           LL_RTC_TIME_SetMinute
1159:Drivers/STM32F0xx_HAL_Driver/Inc/stm32f0xx_ll_rtc.h ****   * @param  RTCx RTC Instance
1160:Drivers/STM32F0xx_HAL_Driver/Inc/stm32f0xx_ll_rtc.h ****   * @param  Minutes Value between Min_Data=0x00 and Max_Data=0x59
1161:Drivers/STM32F0xx_HAL_Driver/Inc/stm32f0xx_ll_rtc.h ****   * @retval None
1162:Drivers/STM32F0xx_HAL_Driver/Inc/stm32f0xx_ll_rtc.h ****   */
1163:Drivers/STM32F0xx_HAL_Driver/Inc/stm32f0xx_ll_rtc.h **** __STATIC_INLINE void LL_RTC_TIME_SetMinute(RTC_TypeDef *RTCx, uint32_t Minutes)
1164:Drivers/STM32F0xx_HAL_Driver/Inc/stm32f0xx_ll_rtc.h **** {
ARM GAS  C:\Users\strag\AppData\Local\Temp\ccM4RwII.s 			page 34


1165:Drivers/STM32F0xx_HAL_Driver/Inc/stm32f0xx_ll_rtc.h ****   MODIFY_REG(RTCx->TR, (RTC_TR_MNT | RTC_TR_MNU),
1166:Drivers/STM32F0xx_HAL_Driver/Inc/stm32f0xx_ll_rtc.h ****              (((Minutes & 0xF0U) << (RTC_TR_MNT_Pos - 4U)) | ((Minutes & 0x0FU) << RTC_TR_MNU_Pos))
1167:Drivers/STM32F0xx_HAL_Driver/Inc/stm32f0xx_ll_rtc.h **** }
1168:Drivers/STM32F0xx_HAL_Driver/Inc/stm32f0xx_ll_rtc.h **** 
1169:Drivers/STM32F0xx_HAL_Driver/Inc/stm32f0xx_ll_rtc.h **** /**
1170:Drivers/STM32F0xx_HAL_Driver/Inc/stm32f0xx_ll_rtc.h ****   * @brief  Get Minutes in BCD format
1171:Drivers/STM32F0xx_HAL_Driver/Inc/stm32f0xx_ll_rtc.h ****   * @note if shadow mode is disabled (BYPSHAD=0), need to check if RSF flag is set
1172:Drivers/STM32F0xx_HAL_Driver/Inc/stm32f0xx_ll_rtc.h ****   *       before reading this bit
1173:Drivers/STM32F0xx_HAL_Driver/Inc/stm32f0xx_ll_rtc.h ****   * @note Read either RTC_SSR or RTC_TR locks the values in the higher-order calendar
1174:Drivers/STM32F0xx_HAL_Driver/Inc/stm32f0xx_ll_rtc.h ****   *       shadow registers until RTC_DR is read (LL_RTC_ReadReg(RTC, DR)).
1175:Drivers/STM32F0xx_HAL_Driver/Inc/stm32f0xx_ll_rtc.h ****   * @note helper macro __LL_RTC_CONVERT_BCD2BIN is available to convert minute from BCD
1176:Drivers/STM32F0xx_HAL_Driver/Inc/stm32f0xx_ll_rtc.h ****   *       to Binary format
1177:Drivers/STM32F0xx_HAL_Driver/Inc/stm32f0xx_ll_rtc.h ****   * @rmtoll TR           MNT           LL_RTC_TIME_GetMinute\n
1178:Drivers/STM32F0xx_HAL_Driver/Inc/stm32f0xx_ll_rtc.h ****   *         TR           MNU           LL_RTC_TIME_GetMinute
1179:Drivers/STM32F0xx_HAL_Driver/Inc/stm32f0xx_ll_rtc.h ****   * @param  RTCx RTC Instance
1180:Drivers/STM32F0xx_HAL_Driver/Inc/stm32f0xx_ll_rtc.h ****   * @retval Value between Min_Data=0x00 and Max_Data=0x59
1181:Drivers/STM32F0xx_HAL_Driver/Inc/stm32f0xx_ll_rtc.h ****   */
1182:Drivers/STM32F0xx_HAL_Driver/Inc/stm32f0xx_ll_rtc.h **** __STATIC_INLINE uint32_t LL_RTC_TIME_GetMinute(RTC_TypeDef *RTCx)
1183:Drivers/STM32F0xx_HAL_Driver/Inc/stm32f0xx_ll_rtc.h **** {
1184:Drivers/STM32F0xx_HAL_Driver/Inc/stm32f0xx_ll_rtc.h ****   register uint32_t temp = 0U;
1185:Drivers/STM32F0xx_HAL_Driver/Inc/stm32f0xx_ll_rtc.h **** 
1186:Drivers/STM32F0xx_HAL_Driver/Inc/stm32f0xx_ll_rtc.h ****   temp = READ_BIT(RTCx->TR, (RTC_TR_MNT | RTC_TR_MNU));
1187:Drivers/STM32F0xx_HAL_Driver/Inc/stm32f0xx_ll_rtc.h ****   return (uint32_t)((((temp & RTC_TR_MNT) >> RTC_TR_MNT_Pos) << 4U) | ((temp & RTC_TR_MNU) >> RTC_T
1188:Drivers/STM32F0xx_HAL_Driver/Inc/stm32f0xx_ll_rtc.h **** }
1189:Drivers/STM32F0xx_HAL_Driver/Inc/stm32f0xx_ll_rtc.h **** 
1190:Drivers/STM32F0xx_HAL_Driver/Inc/stm32f0xx_ll_rtc.h **** /**
1191:Drivers/STM32F0xx_HAL_Driver/Inc/stm32f0xx_ll_rtc.h ****   * @brief  Set Seconds in BCD format
1192:Drivers/STM32F0xx_HAL_Driver/Inc/stm32f0xx_ll_rtc.h ****   * @note   Bit is write-protected. @ref LL_RTC_DisableWriteProtection function should be called be
1193:Drivers/STM32F0xx_HAL_Driver/Inc/stm32f0xx_ll_rtc.h ****   * @note   It can be written in initialization mode only (@ref LL_RTC_EnableInitMode function)
1194:Drivers/STM32F0xx_HAL_Driver/Inc/stm32f0xx_ll_rtc.h ****   * @note helper macro __LL_RTC_CONVERT_BIN2BCD is available to convert Seconds from binary to BCD 
1195:Drivers/STM32F0xx_HAL_Driver/Inc/stm32f0xx_ll_rtc.h ****   * @rmtoll TR           ST            LL_RTC_TIME_SetSecond\n
1196:Drivers/STM32F0xx_HAL_Driver/Inc/stm32f0xx_ll_rtc.h ****   *         TR           SU            LL_RTC_TIME_SetSecond
1197:Drivers/STM32F0xx_HAL_Driver/Inc/stm32f0xx_ll_rtc.h ****   * @param  RTCx RTC Instance
1198:Drivers/STM32F0xx_HAL_Driver/Inc/stm32f0xx_ll_rtc.h ****   * @param  Seconds Value between Min_Data=0x00 and Max_Data=0x59
1199:Drivers/STM32F0xx_HAL_Driver/Inc/stm32f0xx_ll_rtc.h ****   * @retval None
1200:Drivers/STM32F0xx_HAL_Driver/Inc/stm32f0xx_ll_rtc.h ****   */
1201:Drivers/STM32F0xx_HAL_Driver/Inc/stm32f0xx_ll_rtc.h **** __STATIC_INLINE void LL_RTC_TIME_SetSecond(RTC_TypeDef *RTCx, uint32_t Seconds)
1202:Drivers/STM32F0xx_HAL_Driver/Inc/stm32f0xx_ll_rtc.h **** {
1203:Drivers/STM32F0xx_HAL_Driver/Inc/stm32f0xx_ll_rtc.h ****   MODIFY_REG(RTCx->TR, (RTC_TR_ST | RTC_TR_SU),
1204:Drivers/STM32F0xx_HAL_Driver/Inc/stm32f0xx_ll_rtc.h ****              (((Seconds & 0xF0U) << (RTC_TR_ST_Pos - 4U)) | ((Seconds & 0x0FU) << RTC_TR_SU_Pos)));
1205:Drivers/STM32F0xx_HAL_Driver/Inc/stm32f0xx_ll_rtc.h **** }
1206:Drivers/STM32F0xx_HAL_Driver/Inc/stm32f0xx_ll_rtc.h **** 
1207:Drivers/STM32F0xx_HAL_Driver/Inc/stm32f0xx_ll_rtc.h **** /**
1208:Drivers/STM32F0xx_HAL_Driver/Inc/stm32f0xx_ll_rtc.h ****   * @brief  Get Seconds in BCD format
1209:Drivers/STM32F0xx_HAL_Driver/Inc/stm32f0xx_ll_rtc.h ****   * @note if shadow mode is disabled (BYPSHAD=0), need to check if RSF flag is set
1210:Drivers/STM32F0xx_HAL_Driver/Inc/stm32f0xx_ll_rtc.h ****   *       before reading this bit
1211:Drivers/STM32F0xx_HAL_Driver/Inc/stm32f0xx_ll_rtc.h ****   * @note Read either RTC_SSR or RTC_TR locks the values in the higher-order calendar
1212:Drivers/STM32F0xx_HAL_Driver/Inc/stm32f0xx_ll_rtc.h ****   *       shadow registers until RTC_DR is read (LL_RTC_ReadReg(RTC, DR)).
1213:Drivers/STM32F0xx_HAL_Driver/Inc/stm32f0xx_ll_rtc.h ****   * @note helper macro __LL_RTC_CONVERT_BCD2BIN is available to convert Seconds from BCD
1214:Drivers/STM32F0xx_HAL_Driver/Inc/stm32f0xx_ll_rtc.h ****   *       to Binary format
1215:Drivers/STM32F0xx_HAL_Driver/Inc/stm32f0xx_ll_rtc.h ****   * @rmtoll TR           ST            LL_RTC_TIME_GetSecond\n
1216:Drivers/STM32F0xx_HAL_Driver/Inc/stm32f0xx_ll_rtc.h ****   *         TR           SU            LL_RTC_TIME_GetSecond
1217:Drivers/STM32F0xx_HAL_Driver/Inc/stm32f0xx_ll_rtc.h ****   * @param  RTCx RTC Instance
1218:Drivers/STM32F0xx_HAL_Driver/Inc/stm32f0xx_ll_rtc.h ****   * @retval Value between Min_Data=0x00 and Max_Data=0x59
1219:Drivers/STM32F0xx_HAL_Driver/Inc/stm32f0xx_ll_rtc.h ****   */
1220:Drivers/STM32F0xx_HAL_Driver/Inc/stm32f0xx_ll_rtc.h **** __STATIC_INLINE uint32_t LL_RTC_TIME_GetSecond(RTC_TypeDef *RTCx)
1221:Drivers/STM32F0xx_HAL_Driver/Inc/stm32f0xx_ll_rtc.h **** {
ARM GAS  C:\Users\strag\AppData\Local\Temp\ccM4RwII.s 			page 35


1222:Drivers/STM32F0xx_HAL_Driver/Inc/stm32f0xx_ll_rtc.h ****   register uint32_t temp = 0U;
1223:Drivers/STM32F0xx_HAL_Driver/Inc/stm32f0xx_ll_rtc.h **** 
1224:Drivers/STM32F0xx_HAL_Driver/Inc/stm32f0xx_ll_rtc.h ****   temp = READ_BIT(RTCx->TR, (RTC_TR_ST | RTC_TR_SU));
1225:Drivers/STM32F0xx_HAL_Driver/Inc/stm32f0xx_ll_rtc.h ****   return (uint32_t)((((temp & RTC_TR_ST) >> RTC_TR_ST_Pos) << 4U) | ((temp & RTC_TR_SU) >> RTC_TR_S
1226:Drivers/STM32F0xx_HAL_Driver/Inc/stm32f0xx_ll_rtc.h **** }
1227:Drivers/STM32F0xx_HAL_Driver/Inc/stm32f0xx_ll_rtc.h **** 
1228:Drivers/STM32F0xx_HAL_Driver/Inc/stm32f0xx_ll_rtc.h **** /**
1229:Drivers/STM32F0xx_HAL_Driver/Inc/stm32f0xx_ll_rtc.h ****   * @brief  Set time (hour, minute and second) in BCD format
1230:Drivers/STM32F0xx_HAL_Driver/Inc/stm32f0xx_ll_rtc.h ****   * @note   Bit is write-protected. @ref LL_RTC_DisableWriteProtection function should be called be
1231:Drivers/STM32F0xx_HAL_Driver/Inc/stm32f0xx_ll_rtc.h ****   * @note   It can be written in initialization mode only (@ref LL_RTC_EnableInitMode function)
1232:Drivers/STM32F0xx_HAL_Driver/Inc/stm32f0xx_ll_rtc.h ****   * @note TimeFormat and Hours should follow the same format
1233:Drivers/STM32F0xx_HAL_Driver/Inc/stm32f0xx_ll_rtc.h ****   * @rmtoll TR           PM            LL_RTC_TIME_Config\n
1234:Drivers/STM32F0xx_HAL_Driver/Inc/stm32f0xx_ll_rtc.h ****   *         TR           HT            LL_RTC_TIME_Config\n
1235:Drivers/STM32F0xx_HAL_Driver/Inc/stm32f0xx_ll_rtc.h ****   *         TR           HU            LL_RTC_TIME_Config\n
1236:Drivers/STM32F0xx_HAL_Driver/Inc/stm32f0xx_ll_rtc.h ****   *         TR           MNT           LL_RTC_TIME_Config\n
1237:Drivers/STM32F0xx_HAL_Driver/Inc/stm32f0xx_ll_rtc.h ****   *         TR           MNU           LL_RTC_TIME_Config\n
1238:Drivers/STM32F0xx_HAL_Driver/Inc/stm32f0xx_ll_rtc.h ****   *         TR           ST            LL_RTC_TIME_Config\n
1239:Drivers/STM32F0xx_HAL_Driver/Inc/stm32f0xx_ll_rtc.h ****   *         TR           SU            LL_RTC_TIME_Config
1240:Drivers/STM32F0xx_HAL_Driver/Inc/stm32f0xx_ll_rtc.h ****   * @param  RTCx RTC Instance
1241:Drivers/STM32F0xx_HAL_Driver/Inc/stm32f0xx_ll_rtc.h ****   * @param  Format12_24 This parameter can be one of the following values:
1242:Drivers/STM32F0xx_HAL_Driver/Inc/stm32f0xx_ll_rtc.h ****   *         @arg @ref LL_RTC_TIME_FORMAT_AM_OR_24
1243:Drivers/STM32F0xx_HAL_Driver/Inc/stm32f0xx_ll_rtc.h ****   *         @arg @ref LL_RTC_TIME_FORMAT_PM
1244:Drivers/STM32F0xx_HAL_Driver/Inc/stm32f0xx_ll_rtc.h ****   * @param  Hours Value between Min_Data=0x01 and Max_Data=0x12 or between Min_Data=0x00 and Max_Da
1245:Drivers/STM32F0xx_HAL_Driver/Inc/stm32f0xx_ll_rtc.h ****   * @param  Minutes Value between Min_Data=0x00 and Max_Data=0x59
1246:Drivers/STM32F0xx_HAL_Driver/Inc/stm32f0xx_ll_rtc.h ****   * @param  Seconds Value between Min_Data=0x00 and Max_Data=0x59
1247:Drivers/STM32F0xx_HAL_Driver/Inc/stm32f0xx_ll_rtc.h ****   * @retval None
1248:Drivers/STM32F0xx_HAL_Driver/Inc/stm32f0xx_ll_rtc.h ****   */
1249:Drivers/STM32F0xx_HAL_Driver/Inc/stm32f0xx_ll_rtc.h **** __STATIC_INLINE void LL_RTC_TIME_Config(RTC_TypeDef *RTCx, uint32_t Format12_24, uint32_t Hours, ui
1250:Drivers/STM32F0xx_HAL_Driver/Inc/stm32f0xx_ll_rtc.h **** {
1251:Drivers/STM32F0xx_HAL_Driver/Inc/stm32f0xx_ll_rtc.h ****   register uint32_t temp = 0U;
1252:Drivers/STM32F0xx_HAL_Driver/Inc/stm32f0xx_ll_rtc.h **** 
1253:Drivers/STM32F0xx_HAL_Driver/Inc/stm32f0xx_ll_rtc.h ****   temp = Format12_24                                                                               
1254:Drivers/STM32F0xx_HAL_Driver/Inc/stm32f0xx_ll_rtc.h ****          (((Hours & 0xF0U) << (RTC_TR_HT_Pos - 4U)) | ((Hours & 0x0FU) << RTC_TR_HU_Pos))     | \
1255:Drivers/STM32F0xx_HAL_Driver/Inc/stm32f0xx_ll_rtc.h ****          (((Minutes & 0xF0U) << (RTC_TR_MNT_Pos - 4U)) | ((Minutes & 0x0FU) << RTC_TR_MNU_Pos)) | \
1256:Drivers/STM32F0xx_HAL_Driver/Inc/stm32f0xx_ll_rtc.h ****          (((Seconds & 0xF0U) << (RTC_TR_ST_Pos - 4U)) | ((Seconds & 0x0FU) << RTC_TR_SU_Pos));
1257:Drivers/STM32F0xx_HAL_Driver/Inc/stm32f0xx_ll_rtc.h ****   MODIFY_REG(RTCx->TR, (RTC_TR_PM | RTC_TR_HT | RTC_TR_HU | RTC_TR_MNT | RTC_TR_MNU | RTC_TR_ST | R
1258:Drivers/STM32F0xx_HAL_Driver/Inc/stm32f0xx_ll_rtc.h **** }
1259:Drivers/STM32F0xx_HAL_Driver/Inc/stm32f0xx_ll_rtc.h **** 
1260:Drivers/STM32F0xx_HAL_Driver/Inc/stm32f0xx_ll_rtc.h **** /**
1261:Drivers/STM32F0xx_HAL_Driver/Inc/stm32f0xx_ll_rtc.h ****   * @brief  Get time (hour, minute and second) in BCD format
1262:Drivers/STM32F0xx_HAL_Driver/Inc/stm32f0xx_ll_rtc.h ****   * @note if shadow mode is disabled (BYPSHAD=0), need to check if RSF flag is set
1263:Drivers/STM32F0xx_HAL_Driver/Inc/stm32f0xx_ll_rtc.h ****   *       before reading this bit
1264:Drivers/STM32F0xx_HAL_Driver/Inc/stm32f0xx_ll_rtc.h ****   * @note Read either RTC_SSR or RTC_TR locks the values in the higher-order calendar
1265:Drivers/STM32F0xx_HAL_Driver/Inc/stm32f0xx_ll_rtc.h ****   *       shadow registers until RTC_DR is read (LL_RTC_ReadReg(RTC, DR)).
1266:Drivers/STM32F0xx_HAL_Driver/Inc/stm32f0xx_ll_rtc.h ****   * @note helper macros __LL_RTC_GET_HOUR, __LL_RTC_GET_MINUTE and __LL_RTC_GET_SECOND
1267:Drivers/STM32F0xx_HAL_Driver/Inc/stm32f0xx_ll_rtc.h ****   *       are available to get independently each parameter.
1268:Drivers/STM32F0xx_HAL_Driver/Inc/stm32f0xx_ll_rtc.h ****   * @rmtoll TR           HT            LL_RTC_TIME_Get\n
1269:Drivers/STM32F0xx_HAL_Driver/Inc/stm32f0xx_ll_rtc.h ****   *         TR           HU            LL_RTC_TIME_Get\n
1270:Drivers/STM32F0xx_HAL_Driver/Inc/stm32f0xx_ll_rtc.h ****   *         TR           MNT           LL_RTC_TIME_Get\n
1271:Drivers/STM32F0xx_HAL_Driver/Inc/stm32f0xx_ll_rtc.h ****   *         TR           MNU           LL_RTC_TIME_Get\n
1272:Drivers/STM32F0xx_HAL_Driver/Inc/stm32f0xx_ll_rtc.h ****   *         TR           ST            LL_RTC_TIME_Get\n
1273:Drivers/STM32F0xx_HAL_Driver/Inc/stm32f0xx_ll_rtc.h ****   *         TR           SU            LL_RTC_TIME_Get
1274:Drivers/STM32F0xx_HAL_Driver/Inc/stm32f0xx_ll_rtc.h ****   * @param  RTCx RTC Instance
1275:Drivers/STM32F0xx_HAL_Driver/Inc/stm32f0xx_ll_rtc.h ****   * @retval Combination of hours, minutes and seconds (Format: 0x00HHMMSS).
1276:Drivers/STM32F0xx_HAL_Driver/Inc/stm32f0xx_ll_rtc.h ****   */
1277:Drivers/STM32F0xx_HAL_Driver/Inc/stm32f0xx_ll_rtc.h **** __STATIC_INLINE uint32_t LL_RTC_TIME_Get(RTC_TypeDef *RTCx)
1278:Drivers/STM32F0xx_HAL_Driver/Inc/stm32f0xx_ll_rtc.h **** {
ARM GAS  C:\Users\strag\AppData\Local\Temp\ccM4RwII.s 			page 36


1279:Drivers/STM32F0xx_HAL_Driver/Inc/stm32f0xx_ll_rtc.h ****   register uint32_t temp = 0U;
1280:Drivers/STM32F0xx_HAL_Driver/Inc/stm32f0xx_ll_rtc.h ****   
1281:Drivers/STM32F0xx_HAL_Driver/Inc/stm32f0xx_ll_rtc.h ****   temp = READ_BIT(RTCx->TR, (RTC_TR_HT | RTC_TR_HU | RTC_TR_MNT | RTC_TR_MNU | RTC_TR_ST | RTC_TR_S
1282:Drivers/STM32F0xx_HAL_Driver/Inc/stm32f0xx_ll_rtc.h ****   return (uint32_t)((((((temp & RTC_TR_HT) >> RTC_TR_HT_Pos) << 4U) | ((temp & RTC_TR_HU) >> RTC_TR
1283:Drivers/STM32F0xx_HAL_Driver/Inc/stm32f0xx_ll_rtc.h ****                     (((((temp & RTC_TR_MNT) >> RTC_TR_MNT_Pos) << 4U) | ((temp & RTC_TR_MNU) >> RTC
1284:Drivers/STM32F0xx_HAL_Driver/Inc/stm32f0xx_ll_rtc.h ****                     ((((temp & RTC_TR_ST) >> RTC_TR_ST_Pos) << 4U) | ((temp & RTC_TR_SU) >> RTC_TR_
1285:Drivers/STM32F0xx_HAL_Driver/Inc/stm32f0xx_ll_rtc.h **** }
1286:Drivers/STM32F0xx_HAL_Driver/Inc/stm32f0xx_ll_rtc.h **** 
1287:Drivers/STM32F0xx_HAL_Driver/Inc/stm32f0xx_ll_rtc.h **** /**
1288:Drivers/STM32F0xx_HAL_Driver/Inc/stm32f0xx_ll_rtc.h ****   * @brief  Memorize whether the daylight saving time change has been performed
1289:Drivers/STM32F0xx_HAL_Driver/Inc/stm32f0xx_ll_rtc.h ****   * @note   Bit is write-protected. @ref LL_RTC_DisableWriteProtection function should be called be
1290:Drivers/STM32F0xx_HAL_Driver/Inc/stm32f0xx_ll_rtc.h ****   * @rmtoll CR           BKP           LL_RTC_TIME_EnableDayLightStore
1291:Drivers/STM32F0xx_HAL_Driver/Inc/stm32f0xx_ll_rtc.h ****   * @param  RTCx RTC Instance
1292:Drivers/STM32F0xx_HAL_Driver/Inc/stm32f0xx_ll_rtc.h ****   * @retval None
1293:Drivers/STM32F0xx_HAL_Driver/Inc/stm32f0xx_ll_rtc.h ****   */
1294:Drivers/STM32F0xx_HAL_Driver/Inc/stm32f0xx_ll_rtc.h **** __STATIC_INLINE void LL_RTC_TIME_EnableDayLightStore(RTC_TypeDef *RTCx)
1295:Drivers/STM32F0xx_HAL_Driver/Inc/stm32f0xx_ll_rtc.h **** {
1296:Drivers/STM32F0xx_HAL_Driver/Inc/stm32f0xx_ll_rtc.h ****   SET_BIT(RTCx->CR, RTC_CR_BKP);
1297:Drivers/STM32F0xx_HAL_Driver/Inc/stm32f0xx_ll_rtc.h **** }
1298:Drivers/STM32F0xx_HAL_Driver/Inc/stm32f0xx_ll_rtc.h **** 
1299:Drivers/STM32F0xx_HAL_Driver/Inc/stm32f0xx_ll_rtc.h **** /**
1300:Drivers/STM32F0xx_HAL_Driver/Inc/stm32f0xx_ll_rtc.h ****   * @brief  Disable memorization whether the daylight saving time change has been performed.
1301:Drivers/STM32F0xx_HAL_Driver/Inc/stm32f0xx_ll_rtc.h ****   * @note   Bit is write-protected. @ref LL_RTC_DisableWriteProtection function should be called be
1302:Drivers/STM32F0xx_HAL_Driver/Inc/stm32f0xx_ll_rtc.h ****   * @rmtoll CR           BKP           LL_RTC_TIME_DisableDayLightStore
1303:Drivers/STM32F0xx_HAL_Driver/Inc/stm32f0xx_ll_rtc.h ****   * @param  RTCx RTC Instance
1304:Drivers/STM32F0xx_HAL_Driver/Inc/stm32f0xx_ll_rtc.h ****   * @retval None
1305:Drivers/STM32F0xx_HAL_Driver/Inc/stm32f0xx_ll_rtc.h ****   */
1306:Drivers/STM32F0xx_HAL_Driver/Inc/stm32f0xx_ll_rtc.h **** __STATIC_INLINE void LL_RTC_TIME_DisableDayLightStore(RTC_TypeDef *RTCx)
1307:Drivers/STM32F0xx_HAL_Driver/Inc/stm32f0xx_ll_rtc.h **** {
1308:Drivers/STM32F0xx_HAL_Driver/Inc/stm32f0xx_ll_rtc.h ****   CLEAR_BIT(RTCx->CR, RTC_CR_BKP);
1309:Drivers/STM32F0xx_HAL_Driver/Inc/stm32f0xx_ll_rtc.h **** }
1310:Drivers/STM32F0xx_HAL_Driver/Inc/stm32f0xx_ll_rtc.h **** 
1311:Drivers/STM32F0xx_HAL_Driver/Inc/stm32f0xx_ll_rtc.h **** /**
1312:Drivers/STM32F0xx_HAL_Driver/Inc/stm32f0xx_ll_rtc.h ****   * @brief  Check if RTC Day Light Saving stored operation has been enabled or not
1313:Drivers/STM32F0xx_HAL_Driver/Inc/stm32f0xx_ll_rtc.h ****   * @rmtoll CR           BKP           LL_RTC_TIME_IsDayLightStoreEnabled
1314:Drivers/STM32F0xx_HAL_Driver/Inc/stm32f0xx_ll_rtc.h ****   * @param  RTCx RTC Instance
1315:Drivers/STM32F0xx_HAL_Driver/Inc/stm32f0xx_ll_rtc.h ****   * @retval State of bit (1 or 0).
1316:Drivers/STM32F0xx_HAL_Driver/Inc/stm32f0xx_ll_rtc.h ****   */
1317:Drivers/STM32F0xx_HAL_Driver/Inc/stm32f0xx_ll_rtc.h **** __STATIC_INLINE uint32_t LL_RTC_TIME_IsDayLightStoreEnabled(RTC_TypeDef *RTCx)
1318:Drivers/STM32F0xx_HAL_Driver/Inc/stm32f0xx_ll_rtc.h **** {
1319:Drivers/STM32F0xx_HAL_Driver/Inc/stm32f0xx_ll_rtc.h ****   return (READ_BIT(RTCx->CR, RTC_CR_BKP) == (RTC_CR_BKP));
1320:Drivers/STM32F0xx_HAL_Driver/Inc/stm32f0xx_ll_rtc.h **** }
1321:Drivers/STM32F0xx_HAL_Driver/Inc/stm32f0xx_ll_rtc.h **** 
1322:Drivers/STM32F0xx_HAL_Driver/Inc/stm32f0xx_ll_rtc.h **** /**
1323:Drivers/STM32F0xx_HAL_Driver/Inc/stm32f0xx_ll_rtc.h ****   * @brief  Subtract 1 hour (winter time change)
1324:Drivers/STM32F0xx_HAL_Driver/Inc/stm32f0xx_ll_rtc.h ****   * @note   Bit is write-protected. @ref LL_RTC_DisableWriteProtection function should be called be
1325:Drivers/STM32F0xx_HAL_Driver/Inc/stm32f0xx_ll_rtc.h ****   * @rmtoll CR           SUB1H         LL_RTC_TIME_DecHour
1326:Drivers/STM32F0xx_HAL_Driver/Inc/stm32f0xx_ll_rtc.h ****   * @param  RTCx RTC Instance
1327:Drivers/STM32F0xx_HAL_Driver/Inc/stm32f0xx_ll_rtc.h ****   * @retval None
1328:Drivers/STM32F0xx_HAL_Driver/Inc/stm32f0xx_ll_rtc.h ****   */
1329:Drivers/STM32F0xx_HAL_Driver/Inc/stm32f0xx_ll_rtc.h **** __STATIC_INLINE void LL_RTC_TIME_DecHour(RTC_TypeDef *RTCx)
1330:Drivers/STM32F0xx_HAL_Driver/Inc/stm32f0xx_ll_rtc.h **** {
1331:Drivers/STM32F0xx_HAL_Driver/Inc/stm32f0xx_ll_rtc.h ****   SET_BIT(RTCx->CR, RTC_CR_SUB1H);
1332:Drivers/STM32F0xx_HAL_Driver/Inc/stm32f0xx_ll_rtc.h **** }
1333:Drivers/STM32F0xx_HAL_Driver/Inc/stm32f0xx_ll_rtc.h **** 
1334:Drivers/STM32F0xx_HAL_Driver/Inc/stm32f0xx_ll_rtc.h **** /**
1335:Drivers/STM32F0xx_HAL_Driver/Inc/stm32f0xx_ll_rtc.h ****   * @brief  Add 1 hour (summer time change)
ARM GAS  C:\Users\strag\AppData\Local\Temp\ccM4RwII.s 			page 37


1336:Drivers/STM32F0xx_HAL_Driver/Inc/stm32f0xx_ll_rtc.h ****   * @note   Bit is write-protected. @ref LL_RTC_DisableWriteProtection function should be called be
1337:Drivers/STM32F0xx_HAL_Driver/Inc/stm32f0xx_ll_rtc.h ****   * @rmtoll CR           ADD1H         LL_RTC_TIME_IncHour
1338:Drivers/STM32F0xx_HAL_Driver/Inc/stm32f0xx_ll_rtc.h ****   * @param  RTCx RTC Instance
1339:Drivers/STM32F0xx_HAL_Driver/Inc/stm32f0xx_ll_rtc.h ****   * @retval None
1340:Drivers/STM32F0xx_HAL_Driver/Inc/stm32f0xx_ll_rtc.h ****   */
1341:Drivers/STM32F0xx_HAL_Driver/Inc/stm32f0xx_ll_rtc.h **** __STATIC_INLINE void LL_RTC_TIME_IncHour(RTC_TypeDef *RTCx)
1342:Drivers/STM32F0xx_HAL_Driver/Inc/stm32f0xx_ll_rtc.h **** {
1343:Drivers/STM32F0xx_HAL_Driver/Inc/stm32f0xx_ll_rtc.h ****   SET_BIT(RTCx->CR, RTC_CR_ADD1H);
1344:Drivers/STM32F0xx_HAL_Driver/Inc/stm32f0xx_ll_rtc.h **** }
1345:Drivers/STM32F0xx_HAL_Driver/Inc/stm32f0xx_ll_rtc.h **** 
1346:Drivers/STM32F0xx_HAL_Driver/Inc/stm32f0xx_ll_rtc.h **** /**
1347:Drivers/STM32F0xx_HAL_Driver/Inc/stm32f0xx_ll_rtc.h ****   * @brief  Get Sub second value in the synchronous prescaler counter.
1348:Drivers/STM32F0xx_HAL_Driver/Inc/stm32f0xx_ll_rtc.h ****   * @note  You can use both SubSeconds value and SecondFraction (PREDIV_S through
1349:Drivers/STM32F0xx_HAL_Driver/Inc/stm32f0xx_ll_rtc.h ****   *        LL_RTC_GetSynchPrescaler function) terms returned to convert Calendar
1350:Drivers/STM32F0xx_HAL_Driver/Inc/stm32f0xx_ll_rtc.h ****   *        SubSeconds value in second fraction ratio with time unit following
1351:Drivers/STM32F0xx_HAL_Driver/Inc/stm32f0xx_ll_rtc.h ****   *        generic formula:
1352:Drivers/STM32F0xx_HAL_Driver/Inc/stm32f0xx_ll_rtc.h ****   *          ==> Seconds fraction ratio * time_unit= [(SecondFraction-SubSeconds)/(SecondFraction+1
1353:Drivers/STM32F0xx_HAL_Driver/Inc/stm32f0xx_ll_rtc.h ****   *        This conversion can be performed only if no shift operation is pending
1354:Drivers/STM32F0xx_HAL_Driver/Inc/stm32f0xx_ll_rtc.h ****   *        (ie. SHFP=0) when PREDIV_S >= SS.
1355:Drivers/STM32F0xx_HAL_Driver/Inc/stm32f0xx_ll_rtc.h ****   * @rmtoll SSR          SS            LL_RTC_TIME_GetSubSecond
1356:Drivers/STM32F0xx_HAL_Driver/Inc/stm32f0xx_ll_rtc.h ****   * @param  RTCx RTC Instance
1357:Drivers/STM32F0xx_HAL_Driver/Inc/stm32f0xx_ll_rtc.h ****   * @retval Sub second value (number between 0 and 65535)
1358:Drivers/STM32F0xx_HAL_Driver/Inc/stm32f0xx_ll_rtc.h ****   */
1359:Drivers/STM32F0xx_HAL_Driver/Inc/stm32f0xx_ll_rtc.h **** __STATIC_INLINE uint32_t LL_RTC_TIME_GetSubSecond(RTC_TypeDef *RTCx)
1360:Drivers/STM32F0xx_HAL_Driver/Inc/stm32f0xx_ll_rtc.h **** {
1361:Drivers/STM32F0xx_HAL_Driver/Inc/stm32f0xx_ll_rtc.h ****   return (uint32_t)(READ_BIT(RTCx->SSR, RTC_SSR_SS));
1362:Drivers/STM32F0xx_HAL_Driver/Inc/stm32f0xx_ll_rtc.h **** }
1363:Drivers/STM32F0xx_HAL_Driver/Inc/stm32f0xx_ll_rtc.h **** 
1364:Drivers/STM32F0xx_HAL_Driver/Inc/stm32f0xx_ll_rtc.h **** /**
1365:Drivers/STM32F0xx_HAL_Driver/Inc/stm32f0xx_ll_rtc.h ****   * @brief  Synchronize to a remote clock with a high degree of precision.
1366:Drivers/STM32F0xx_HAL_Driver/Inc/stm32f0xx_ll_rtc.h ****   * @note   This operation effectively subtracts from (delays) or advance the clock of a fraction o
1367:Drivers/STM32F0xx_HAL_Driver/Inc/stm32f0xx_ll_rtc.h ****   * @note   Bit is write-protected. @ref LL_RTC_DisableWriteProtection function should be called be
1368:Drivers/STM32F0xx_HAL_Driver/Inc/stm32f0xx_ll_rtc.h ****   * @note   When REFCKON is set, firmware must not write to Shift control register.
1369:Drivers/STM32F0xx_HAL_Driver/Inc/stm32f0xx_ll_rtc.h ****   * @rmtoll SHIFTR       ADD1S         LL_RTC_TIME_Synchronize\n
1370:Drivers/STM32F0xx_HAL_Driver/Inc/stm32f0xx_ll_rtc.h ****   *         SHIFTR       SUBFS         LL_RTC_TIME_Synchronize
1371:Drivers/STM32F0xx_HAL_Driver/Inc/stm32f0xx_ll_rtc.h ****   * @param  RTCx RTC Instance
1372:Drivers/STM32F0xx_HAL_Driver/Inc/stm32f0xx_ll_rtc.h ****   * @param  ShiftSecond This parameter can be one of the following values:
1373:Drivers/STM32F0xx_HAL_Driver/Inc/stm32f0xx_ll_rtc.h ****   *         @arg @ref LL_RTC_SHIFT_SECOND_DELAY
1374:Drivers/STM32F0xx_HAL_Driver/Inc/stm32f0xx_ll_rtc.h ****   *         @arg @ref LL_RTC_SHIFT_SECOND_ADVANCE
1375:Drivers/STM32F0xx_HAL_Driver/Inc/stm32f0xx_ll_rtc.h ****   * @param  Fraction Number of Seconds Fractions (any value from 0 to 0x7FFF)
1376:Drivers/STM32F0xx_HAL_Driver/Inc/stm32f0xx_ll_rtc.h ****   * @retval None
1377:Drivers/STM32F0xx_HAL_Driver/Inc/stm32f0xx_ll_rtc.h ****   */
1378:Drivers/STM32F0xx_HAL_Driver/Inc/stm32f0xx_ll_rtc.h **** __STATIC_INLINE void LL_RTC_TIME_Synchronize(RTC_TypeDef *RTCx, uint32_t ShiftSecond, uint32_t Frac
1379:Drivers/STM32F0xx_HAL_Driver/Inc/stm32f0xx_ll_rtc.h **** {
1380:Drivers/STM32F0xx_HAL_Driver/Inc/stm32f0xx_ll_rtc.h ****   WRITE_REG(RTCx->SHIFTR, ShiftSecond | Fraction);
1381:Drivers/STM32F0xx_HAL_Driver/Inc/stm32f0xx_ll_rtc.h **** }
1382:Drivers/STM32F0xx_HAL_Driver/Inc/stm32f0xx_ll_rtc.h **** 
1383:Drivers/STM32F0xx_HAL_Driver/Inc/stm32f0xx_ll_rtc.h **** /**
1384:Drivers/STM32F0xx_HAL_Driver/Inc/stm32f0xx_ll_rtc.h ****   * @}
1385:Drivers/STM32F0xx_HAL_Driver/Inc/stm32f0xx_ll_rtc.h ****   */
1386:Drivers/STM32F0xx_HAL_Driver/Inc/stm32f0xx_ll_rtc.h **** 
1387:Drivers/STM32F0xx_HAL_Driver/Inc/stm32f0xx_ll_rtc.h **** /** @defgroup RTC_LL_EF_Date Date
1388:Drivers/STM32F0xx_HAL_Driver/Inc/stm32f0xx_ll_rtc.h ****   * @{
1389:Drivers/STM32F0xx_HAL_Driver/Inc/stm32f0xx_ll_rtc.h ****   */
1390:Drivers/STM32F0xx_HAL_Driver/Inc/stm32f0xx_ll_rtc.h **** 
1391:Drivers/STM32F0xx_HAL_Driver/Inc/stm32f0xx_ll_rtc.h **** /**
1392:Drivers/STM32F0xx_HAL_Driver/Inc/stm32f0xx_ll_rtc.h ****   * @brief  Set Year in BCD format
ARM GAS  C:\Users\strag\AppData\Local\Temp\ccM4RwII.s 			page 38


1393:Drivers/STM32F0xx_HAL_Driver/Inc/stm32f0xx_ll_rtc.h ****   * @note helper macro __LL_RTC_CONVERT_BIN2BCD is available to convert Year from binary to BCD for
1394:Drivers/STM32F0xx_HAL_Driver/Inc/stm32f0xx_ll_rtc.h ****   * @rmtoll DR           YT            LL_RTC_DATE_SetYear\n
1395:Drivers/STM32F0xx_HAL_Driver/Inc/stm32f0xx_ll_rtc.h ****   *         DR           YU            LL_RTC_DATE_SetYear
1396:Drivers/STM32F0xx_HAL_Driver/Inc/stm32f0xx_ll_rtc.h ****   * @param  RTCx RTC Instance
1397:Drivers/STM32F0xx_HAL_Driver/Inc/stm32f0xx_ll_rtc.h ****   * @param  Year Value between Min_Data=0x00 and Max_Data=0x99
1398:Drivers/STM32F0xx_HAL_Driver/Inc/stm32f0xx_ll_rtc.h ****   * @retval None
1399:Drivers/STM32F0xx_HAL_Driver/Inc/stm32f0xx_ll_rtc.h ****   */
1400:Drivers/STM32F0xx_HAL_Driver/Inc/stm32f0xx_ll_rtc.h **** __STATIC_INLINE void LL_RTC_DATE_SetYear(RTC_TypeDef *RTCx, uint32_t Year)
1401:Drivers/STM32F0xx_HAL_Driver/Inc/stm32f0xx_ll_rtc.h **** {
1402:Drivers/STM32F0xx_HAL_Driver/Inc/stm32f0xx_ll_rtc.h ****   MODIFY_REG(RTCx->DR, (RTC_DR_YT | RTC_DR_YU),
1403:Drivers/STM32F0xx_HAL_Driver/Inc/stm32f0xx_ll_rtc.h ****              (((Year & 0xF0U) << (RTC_DR_YT_Pos - 4U)) | ((Year & 0x0FU) << RTC_DR_YU_Pos)));
1404:Drivers/STM32F0xx_HAL_Driver/Inc/stm32f0xx_ll_rtc.h **** }
1405:Drivers/STM32F0xx_HAL_Driver/Inc/stm32f0xx_ll_rtc.h **** 
1406:Drivers/STM32F0xx_HAL_Driver/Inc/stm32f0xx_ll_rtc.h **** /**
1407:Drivers/STM32F0xx_HAL_Driver/Inc/stm32f0xx_ll_rtc.h ****   * @brief  Get Year in BCD format
1408:Drivers/STM32F0xx_HAL_Driver/Inc/stm32f0xx_ll_rtc.h ****   * @note if shadow mode is disabled (BYPSHAD=0), need to check if RSF flag is set
1409:Drivers/STM32F0xx_HAL_Driver/Inc/stm32f0xx_ll_rtc.h ****   *       before reading this bit
1410:Drivers/STM32F0xx_HAL_Driver/Inc/stm32f0xx_ll_rtc.h ****   * @note helper macro __LL_RTC_CONVERT_BCD2BIN is available to convert Year from BCD to Binary for
1411:Drivers/STM32F0xx_HAL_Driver/Inc/stm32f0xx_ll_rtc.h ****   * @rmtoll DR           YT            LL_RTC_DATE_GetYear\n
1412:Drivers/STM32F0xx_HAL_Driver/Inc/stm32f0xx_ll_rtc.h ****   *         DR           YU            LL_RTC_DATE_GetYear
1413:Drivers/STM32F0xx_HAL_Driver/Inc/stm32f0xx_ll_rtc.h ****   * @param  RTCx RTC Instance
1414:Drivers/STM32F0xx_HAL_Driver/Inc/stm32f0xx_ll_rtc.h ****   * @retval Value between Min_Data=0x00 and Max_Data=0x99
1415:Drivers/STM32F0xx_HAL_Driver/Inc/stm32f0xx_ll_rtc.h ****   */
1416:Drivers/STM32F0xx_HAL_Driver/Inc/stm32f0xx_ll_rtc.h **** __STATIC_INLINE uint32_t LL_RTC_DATE_GetYear(RTC_TypeDef *RTCx)
1417:Drivers/STM32F0xx_HAL_Driver/Inc/stm32f0xx_ll_rtc.h **** {
1418:Drivers/STM32F0xx_HAL_Driver/Inc/stm32f0xx_ll_rtc.h ****   register uint32_t temp = 0U;
1419:Drivers/STM32F0xx_HAL_Driver/Inc/stm32f0xx_ll_rtc.h **** 
1420:Drivers/STM32F0xx_HAL_Driver/Inc/stm32f0xx_ll_rtc.h ****   temp = READ_BIT(RTCx->DR, (RTC_DR_YT | RTC_DR_YU));
1421:Drivers/STM32F0xx_HAL_Driver/Inc/stm32f0xx_ll_rtc.h ****   return (uint32_t)((((temp & RTC_DR_YT) >> RTC_DR_YT_Pos) << 4U) | ((temp & RTC_DR_YU) >> RTC_DR_Y
1422:Drivers/STM32F0xx_HAL_Driver/Inc/stm32f0xx_ll_rtc.h **** }
1423:Drivers/STM32F0xx_HAL_Driver/Inc/stm32f0xx_ll_rtc.h **** 
1424:Drivers/STM32F0xx_HAL_Driver/Inc/stm32f0xx_ll_rtc.h **** /**
1425:Drivers/STM32F0xx_HAL_Driver/Inc/stm32f0xx_ll_rtc.h ****   * @brief  Set Week day
1426:Drivers/STM32F0xx_HAL_Driver/Inc/stm32f0xx_ll_rtc.h ****   * @rmtoll DR           WDU           LL_RTC_DATE_SetWeekDay
1427:Drivers/STM32F0xx_HAL_Driver/Inc/stm32f0xx_ll_rtc.h ****   * @param  RTCx RTC Instance
1428:Drivers/STM32F0xx_HAL_Driver/Inc/stm32f0xx_ll_rtc.h ****   * @param  WeekDay This parameter can be one of the following values:
1429:Drivers/STM32F0xx_HAL_Driver/Inc/stm32f0xx_ll_rtc.h ****   *         @arg @ref LL_RTC_WEEKDAY_MONDAY
1430:Drivers/STM32F0xx_HAL_Driver/Inc/stm32f0xx_ll_rtc.h ****   *         @arg @ref LL_RTC_WEEKDAY_TUESDAY
1431:Drivers/STM32F0xx_HAL_Driver/Inc/stm32f0xx_ll_rtc.h ****   *         @arg @ref LL_RTC_WEEKDAY_WEDNESDAY
1432:Drivers/STM32F0xx_HAL_Driver/Inc/stm32f0xx_ll_rtc.h ****   *         @arg @ref LL_RTC_WEEKDAY_THURSDAY
1433:Drivers/STM32F0xx_HAL_Driver/Inc/stm32f0xx_ll_rtc.h ****   *         @arg @ref LL_RTC_WEEKDAY_FRIDAY
1434:Drivers/STM32F0xx_HAL_Driver/Inc/stm32f0xx_ll_rtc.h ****   *         @arg @ref LL_RTC_WEEKDAY_SATURDAY
1435:Drivers/STM32F0xx_HAL_Driver/Inc/stm32f0xx_ll_rtc.h ****   *         @arg @ref LL_RTC_WEEKDAY_SUNDAY
1436:Drivers/STM32F0xx_HAL_Driver/Inc/stm32f0xx_ll_rtc.h ****   * @retval None
1437:Drivers/STM32F0xx_HAL_Driver/Inc/stm32f0xx_ll_rtc.h ****   */
1438:Drivers/STM32F0xx_HAL_Driver/Inc/stm32f0xx_ll_rtc.h **** __STATIC_INLINE void LL_RTC_DATE_SetWeekDay(RTC_TypeDef *RTCx, uint32_t WeekDay)
1439:Drivers/STM32F0xx_HAL_Driver/Inc/stm32f0xx_ll_rtc.h **** {
1440:Drivers/STM32F0xx_HAL_Driver/Inc/stm32f0xx_ll_rtc.h ****   MODIFY_REG(RTCx->DR, RTC_DR_WDU, WeekDay << RTC_DR_WDU_Pos);
1441:Drivers/STM32F0xx_HAL_Driver/Inc/stm32f0xx_ll_rtc.h **** }
1442:Drivers/STM32F0xx_HAL_Driver/Inc/stm32f0xx_ll_rtc.h **** 
1443:Drivers/STM32F0xx_HAL_Driver/Inc/stm32f0xx_ll_rtc.h **** /**
1444:Drivers/STM32F0xx_HAL_Driver/Inc/stm32f0xx_ll_rtc.h ****   * @brief  Get Week day
1445:Drivers/STM32F0xx_HAL_Driver/Inc/stm32f0xx_ll_rtc.h ****   * @note if shadow mode is disabled (BYPSHAD=0), need to check if RSF flag is set
1446:Drivers/STM32F0xx_HAL_Driver/Inc/stm32f0xx_ll_rtc.h ****   *       before reading this bit
1447:Drivers/STM32F0xx_HAL_Driver/Inc/stm32f0xx_ll_rtc.h ****   * @rmtoll DR           WDU           LL_RTC_DATE_GetWeekDay
1448:Drivers/STM32F0xx_HAL_Driver/Inc/stm32f0xx_ll_rtc.h ****   * @param  RTCx RTC Instance
1449:Drivers/STM32F0xx_HAL_Driver/Inc/stm32f0xx_ll_rtc.h ****   * @retval Returned value can be one of the following values:
ARM GAS  C:\Users\strag\AppData\Local\Temp\ccM4RwII.s 			page 39


1450:Drivers/STM32F0xx_HAL_Driver/Inc/stm32f0xx_ll_rtc.h ****   *         @arg @ref LL_RTC_WEEKDAY_MONDAY
1451:Drivers/STM32F0xx_HAL_Driver/Inc/stm32f0xx_ll_rtc.h ****   *         @arg @ref LL_RTC_WEEKDAY_TUESDAY
1452:Drivers/STM32F0xx_HAL_Driver/Inc/stm32f0xx_ll_rtc.h ****   *         @arg @ref LL_RTC_WEEKDAY_WEDNESDAY
1453:Drivers/STM32F0xx_HAL_Driver/Inc/stm32f0xx_ll_rtc.h ****   *         @arg @ref LL_RTC_WEEKDAY_THURSDAY
1454:Drivers/STM32F0xx_HAL_Driver/Inc/stm32f0xx_ll_rtc.h ****   *         @arg @ref LL_RTC_WEEKDAY_FRIDAY
1455:Drivers/STM32F0xx_HAL_Driver/Inc/stm32f0xx_ll_rtc.h ****   *         @arg @ref LL_RTC_WEEKDAY_SATURDAY
1456:Drivers/STM32F0xx_HAL_Driver/Inc/stm32f0xx_ll_rtc.h ****   *         @arg @ref LL_RTC_WEEKDAY_SUNDAY
1457:Drivers/STM32F0xx_HAL_Driver/Inc/stm32f0xx_ll_rtc.h ****   */
1458:Drivers/STM32F0xx_HAL_Driver/Inc/stm32f0xx_ll_rtc.h **** __STATIC_INLINE uint32_t LL_RTC_DATE_GetWeekDay(RTC_TypeDef *RTCx)
1459:Drivers/STM32F0xx_HAL_Driver/Inc/stm32f0xx_ll_rtc.h **** {
1460:Drivers/STM32F0xx_HAL_Driver/Inc/stm32f0xx_ll_rtc.h ****   return (uint32_t)(READ_BIT(RTCx->DR, RTC_DR_WDU) >> RTC_DR_WDU_Pos);
1461:Drivers/STM32F0xx_HAL_Driver/Inc/stm32f0xx_ll_rtc.h **** }
1462:Drivers/STM32F0xx_HAL_Driver/Inc/stm32f0xx_ll_rtc.h **** 
1463:Drivers/STM32F0xx_HAL_Driver/Inc/stm32f0xx_ll_rtc.h **** /**
1464:Drivers/STM32F0xx_HAL_Driver/Inc/stm32f0xx_ll_rtc.h ****   * @brief  Set Month in BCD format
1465:Drivers/STM32F0xx_HAL_Driver/Inc/stm32f0xx_ll_rtc.h ****   * @note helper macro __LL_RTC_CONVERT_BIN2BCD is available to convert Month from binary to BCD fo
1466:Drivers/STM32F0xx_HAL_Driver/Inc/stm32f0xx_ll_rtc.h ****   * @rmtoll DR           MT            LL_RTC_DATE_SetMonth\n
1467:Drivers/STM32F0xx_HAL_Driver/Inc/stm32f0xx_ll_rtc.h ****   *         DR           MU            LL_RTC_DATE_SetMonth
1468:Drivers/STM32F0xx_HAL_Driver/Inc/stm32f0xx_ll_rtc.h ****   * @param  RTCx RTC Instance
1469:Drivers/STM32F0xx_HAL_Driver/Inc/stm32f0xx_ll_rtc.h ****   * @param  Month This parameter can be one of the following values:
1470:Drivers/STM32F0xx_HAL_Driver/Inc/stm32f0xx_ll_rtc.h ****   *         @arg @ref LL_RTC_MONTH_JANUARY
1471:Drivers/STM32F0xx_HAL_Driver/Inc/stm32f0xx_ll_rtc.h ****   *         @arg @ref LL_RTC_MONTH_FEBRUARY
1472:Drivers/STM32F0xx_HAL_Driver/Inc/stm32f0xx_ll_rtc.h ****   *         @arg @ref LL_RTC_MONTH_MARCH
1473:Drivers/STM32F0xx_HAL_Driver/Inc/stm32f0xx_ll_rtc.h ****   *         @arg @ref LL_RTC_MONTH_APRIL
1474:Drivers/STM32F0xx_HAL_Driver/Inc/stm32f0xx_ll_rtc.h ****   *         @arg @ref LL_RTC_MONTH_MAY
1475:Drivers/STM32F0xx_HAL_Driver/Inc/stm32f0xx_ll_rtc.h ****   *         @arg @ref LL_RTC_MONTH_JUNE
1476:Drivers/STM32F0xx_HAL_Driver/Inc/stm32f0xx_ll_rtc.h ****   *         @arg @ref LL_RTC_MONTH_JULY
1477:Drivers/STM32F0xx_HAL_Driver/Inc/stm32f0xx_ll_rtc.h ****   *         @arg @ref LL_RTC_MONTH_AUGUST
1478:Drivers/STM32F0xx_HAL_Driver/Inc/stm32f0xx_ll_rtc.h ****   *         @arg @ref LL_RTC_MONTH_SEPTEMBER
1479:Drivers/STM32F0xx_HAL_Driver/Inc/stm32f0xx_ll_rtc.h ****   *         @arg @ref LL_RTC_MONTH_OCTOBER
1480:Drivers/STM32F0xx_HAL_Driver/Inc/stm32f0xx_ll_rtc.h ****   *         @arg @ref LL_RTC_MONTH_NOVEMBER
1481:Drivers/STM32F0xx_HAL_Driver/Inc/stm32f0xx_ll_rtc.h ****   *         @arg @ref LL_RTC_MONTH_DECEMBER
1482:Drivers/STM32F0xx_HAL_Driver/Inc/stm32f0xx_ll_rtc.h ****   * @retval None
1483:Drivers/STM32F0xx_HAL_Driver/Inc/stm32f0xx_ll_rtc.h ****   */
1484:Drivers/STM32F0xx_HAL_Driver/Inc/stm32f0xx_ll_rtc.h **** __STATIC_INLINE void LL_RTC_DATE_SetMonth(RTC_TypeDef *RTCx, uint32_t Month)
1485:Drivers/STM32F0xx_HAL_Driver/Inc/stm32f0xx_ll_rtc.h **** {
1486:Drivers/STM32F0xx_HAL_Driver/Inc/stm32f0xx_ll_rtc.h ****   MODIFY_REG(RTCx->DR, (RTC_DR_MT | RTC_DR_MU),
1487:Drivers/STM32F0xx_HAL_Driver/Inc/stm32f0xx_ll_rtc.h ****              (((Month & 0xF0U) << (RTC_DR_MT_Pos - 4U)) | ((Month & 0x0FU) << RTC_DR_MU_Pos)));
1488:Drivers/STM32F0xx_HAL_Driver/Inc/stm32f0xx_ll_rtc.h **** }
1489:Drivers/STM32F0xx_HAL_Driver/Inc/stm32f0xx_ll_rtc.h **** 
1490:Drivers/STM32F0xx_HAL_Driver/Inc/stm32f0xx_ll_rtc.h **** /**
1491:Drivers/STM32F0xx_HAL_Driver/Inc/stm32f0xx_ll_rtc.h ****   * @brief  Get Month in BCD format
1492:Drivers/STM32F0xx_HAL_Driver/Inc/stm32f0xx_ll_rtc.h ****   * @note if shadow mode is disabled (BYPSHAD=0), need to check if RSF flag is set
1493:Drivers/STM32F0xx_HAL_Driver/Inc/stm32f0xx_ll_rtc.h ****   *       before reading this bit
1494:Drivers/STM32F0xx_HAL_Driver/Inc/stm32f0xx_ll_rtc.h ****   * @note helper macro __LL_RTC_CONVERT_BCD2BIN is available to convert Month from BCD to Binary fo
1495:Drivers/STM32F0xx_HAL_Driver/Inc/stm32f0xx_ll_rtc.h ****   * @rmtoll DR           MT            LL_RTC_DATE_GetMonth\n
1496:Drivers/STM32F0xx_HAL_Driver/Inc/stm32f0xx_ll_rtc.h ****   *         DR           MU            LL_RTC_DATE_GetMonth
1497:Drivers/STM32F0xx_HAL_Driver/Inc/stm32f0xx_ll_rtc.h ****   * @param  RTCx RTC Instance
1498:Drivers/STM32F0xx_HAL_Driver/Inc/stm32f0xx_ll_rtc.h ****   * @retval Returned value can be one of the following values:
1499:Drivers/STM32F0xx_HAL_Driver/Inc/stm32f0xx_ll_rtc.h ****   *         @arg @ref LL_RTC_MONTH_JANUARY
1500:Drivers/STM32F0xx_HAL_Driver/Inc/stm32f0xx_ll_rtc.h ****   *         @arg @ref LL_RTC_MONTH_FEBRUARY
1501:Drivers/STM32F0xx_HAL_Driver/Inc/stm32f0xx_ll_rtc.h ****   *         @arg @ref LL_RTC_MONTH_MARCH
1502:Drivers/STM32F0xx_HAL_Driver/Inc/stm32f0xx_ll_rtc.h ****   *         @arg @ref LL_RTC_MONTH_APRIL
1503:Drivers/STM32F0xx_HAL_Driver/Inc/stm32f0xx_ll_rtc.h ****   *         @arg @ref LL_RTC_MONTH_MAY
1504:Drivers/STM32F0xx_HAL_Driver/Inc/stm32f0xx_ll_rtc.h ****   *         @arg @ref LL_RTC_MONTH_JUNE
1505:Drivers/STM32F0xx_HAL_Driver/Inc/stm32f0xx_ll_rtc.h ****   *         @arg @ref LL_RTC_MONTH_JULY
1506:Drivers/STM32F0xx_HAL_Driver/Inc/stm32f0xx_ll_rtc.h ****   *         @arg @ref LL_RTC_MONTH_AUGUST
ARM GAS  C:\Users\strag\AppData\Local\Temp\ccM4RwII.s 			page 40


1507:Drivers/STM32F0xx_HAL_Driver/Inc/stm32f0xx_ll_rtc.h ****   *         @arg @ref LL_RTC_MONTH_SEPTEMBER
1508:Drivers/STM32F0xx_HAL_Driver/Inc/stm32f0xx_ll_rtc.h ****   *         @arg @ref LL_RTC_MONTH_OCTOBER
1509:Drivers/STM32F0xx_HAL_Driver/Inc/stm32f0xx_ll_rtc.h ****   *         @arg @ref LL_RTC_MONTH_NOVEMBER
1510:Drivers/STM32F0xx_HAL_Driver/Inc/stm32f0xx_ll_rtc.h ****   *         @arg @ref LL_RTC_MONTH_DECEMBER
1511:Drivers/STM32F0xx_HAL_Driver/Inc/stm32f0xx_ll_rtc.h ****   */
1512:Drivers/STM32F0xx_HAL_Driver/Inc/stm32f0xx_ll_rtc.h **** __STATIC_INLINE uint32_t LL_RTC_DATE_GetMonth(RTC_TypeDef *RTCx)
1513:Drivers/STM32F0xx_HAL_Driver/Inc/stm32f0xx_ll_rtc.h **** {
1514:Drivers/STM32F0xx_HAL_Driver/Inc/stm32f0xx_ll_rtc.h ****   register uint32_t temp = 0U;
1515:Drivers/STM32F0xx_HAL_Driver/Inc/stm32f0xx_ll_rtc.h **** 
1516:Drivers/STM32F0xx_HAL_Driver/Inc/stm32f0xx_ll_rtc.h ****   temp = READ_BIT(RTCx->DR, (RTC_DR_MT | RTC_DR_MU));
1517:Drivers/STM32F0xx_HAL_Driver/Inc/stm32f0xx_ll_rtc.h ****   return (uint32_t)((((temp & RTC_DR_MT) >> RTC_DR_MT_Pos) << 4U) | ((temp & RTC_DR_MU) >> RTC_DR_M
1518:Drivers/STM32F0xx_HAL_Driver/Inc/stm32f0xx_ll_rtc.h **** }
1519:Drivers/STM32F0xx_HAL_Driver/Inc/stm32f0xx_ll_rtc.h **** 
1520:Drivers/STM32F0xx_HAL_Driver/Inc/stm32f0xx_ll_rtc.h **** /**
1521:Drivers/STM32F0xx_HAL_Driver/Inc/stm32f0xx_ll_rtc.h ****   * @brief  Set Day in BCD format
1522:Drivers/STM32F0xx_HAL_Driver/Inc/stm32f0xx_ll_rtc.h ****   * @note helper macro __LL_RTC_CONVERT_BIN2BCD is available to convert Day from binary to BCD form
1523:Drivers/STM32F0xx_HAL_Driver/Inc/stm32f0xx_ll_rtc.h ****   * @rmtoll DR           DT            LL_RTC_DATE_SetDay\n
1524:Drivers/STM32F0xx_HAL_Driver/Inc/stm32f0xx_ll_rtc.h ****   *         DR           DU            LL_RTC_DATE_SetDay
1525:Drivers/STM32F0xx_HAL_Driver/Inc/stm32f0xx_ll_rtc.h ****   * @param  RTCx RTC Instance
1526:Drivers/STM32F0xx_HAL_Driver/Inc/stm32f0xx_ll_rtc.h ****   * @param  Day Value between Min_Data=0x01 and Max_Data=0x31
1527:Drivers/STM32F0xx_HAL_Driver/Inc/stm32f0xx_ll_rtc.h ****   * @retval None
1528:Drivers/STM32F0xx_HAL_Driver/Inc/stm32f0xx_ll_rtc.h ****   */
1529:Drivers/STM32F0xx_HAL_Driver/Inc/stm32f0xx_ll_rtc.h **** __STATIC_INLINE void LL_RTC_DATE_SetDay(RTC_TypeDef *RTCx, uint32_t Day)
1530:Drivers/STM32F0xx_HAL_Driver/Inc/stm32f0xx_ll_rtc.h **** {
1531:Drivers/STM32F0xx_HAL_Driver/Inc/stm32f0xx_ll_rtc.h ****   MODIFY_REG(RTCx->DR, (RTC_DR_DT | RTC_DR_DU),
1532:Drivers/STM32F0xx_HAL_Driver/Inc/stm32f0xx_ll_rtc.h ****              (((Day & 0xF0U) << (RTC_DR_DT_Pos - 4U)) | ((Day & 0x0FU) << RTC_DR_DU_Pos)));
1533:Drivers/STM32F0xx_HAL_Driver/Inc/stm32f0xx_ll_rtc.h **** }
1534:Drivers/STM32F0xx_HAL_Driver/Inc/stm32f0xx_ll_rtc.h **** 
1535:Drivers/STM32F0xx_HAL_Driver/Inc/stm32f0xx_ll_rtc.h **** /**
1536:Drivers/STM32F0xx_HAL_Driver/Inc/stm32f0xx_ll_rtc.h ****   * @brief  Get Day in BCD format
1537:Drivers/STM32F0xx_HAL_Driver/Inc/stm32f0xx_ll_rtc.h ****   * @note if shadow mode is disabled (BYPSHAD=0), need to check if RSF flag is set
1538:Drivers/STM32F0xx_HAL_Driver/Inc/stm32f0xx_ll_rtc.h ****   *       before reading this bit
1539:Drivers/STM32F0xx_HAL_Driver/Inc/stm32f0xx_ll_rtc.h ****   * @note helper macro __LL_RTC_CONVERT_BCD2BIN is available to convert Day from BCD to Binary form
1540:Drivers/STM32F0xx_HAL_Driver/Inc/stm32f0xx_ll_rtc.h ****   * @rmtoll DR           DT            LL_RTC_DATE_GetDay\n
1541:Drivers/STM32F0xx_HAL_Driver/Inc/stm32f0xx_ll_rtc.h ****   *         DR           DU            LL_RTC_DATE_GetDay
1542:Drivers/STM32F0xx_HAL_Driver/Inc/stm32f0xx_ll_rtc.h ****   * @param  RTCx RTC Instance
1543:Drivers/STM32F0xx_HAL_Driver/Inc/stm32f0xx_ll_rtc.h ****   * @retval Value between Min_Data=0x01 and Max_Data=0x31
1544:Drivers/STM32F0xx_HAL_Driver/Inc/stm32f0xx_ll_rtc.h ****   */
1545:Drivers/STM32F0xx_HAL_Driver/Inc/stm32f0xx_ll_rtc.h **** __STATIC_INLINE uint32_t LL_RTC_DATE_GetDay(RTC_TypeDef *RTCx)
1546:Drivers/STM32F0xx_HAL_Driver/Inc/stm32f0xx_ll_rtc.h **** {
1547:Drivers/STM32F0xx_HAL_Driver/Inc/stm32f0xx_ll_rtc.h ****   register uint32_t temp = 0U;
1548:Drivers/STM32F0xx_HAL_Driver/Inc/stm32f0xx_ll_rtc.h **** 
1549:Drivers/STM32F0xx_HAL_Driver/Inc/stm32f0xx_ll_rtc.h ****   temp = READ_BIT(RTCx->DR, (RTC_DR_DT | RTC_DR_DU));
1550:Drivers/STM32F0xx_HAL_Driver/Inc/stm32f0xx_ll_rtc.h ****   return (uint32_t)((((temp & RTC_DR_DT) >> RTC_DR_DT_Pos) << 4U) | ((temp & RTC_DR_DU) >> RTC_DR_D
1551:Drivers/STM32F0xx_HAL_Driver/Inc/stm32f0xx_ll_rtc.h **** }
1552:Drivers/STM32F0xx_HAL_Driver/Inc/stm32f0xx_ll_rtc.h **** 
1553:Drivers/STM32F0xx_HAL_Driver/Inc/stm32f0xx_ll_rtc.h **** /**
1554:Drivers/STM32F0xx_HAL_Driver/Inc/stm32f0xx_ll_rtc.h ****   * @brief  Set date (WeekDay, Day, Month and Year) in BCD format
1555:Drivers/STM32F0xx_HAL_Driver/Inc/stm32f0xx_ll_rtc.h ****   * @rmtoll DR           WDU           LL_RTC_DATE_Config\n
1556:Drivers/STM32F0xx_HAL_Driver/Inc/stm32f0xx_ll_rtc.h ****   *         DR           MT            LL_RTC_DATE_Config\n
1557:Drivers/STM32F0xx_HAL_Driver/Inc/stm32f0xx_ll_rtc.h ****   *         DR           MU            LL_RTC_DATE_Config\n
1558:Drivers/STM32F0xx_HAL_Driver/Inc/stm32f0xx_ll_rtc.h ****   *         DR           DT            LL_RTC_DATE_Config\n
1559:Drivers/STM32F0xx_HAL_Driver/Inc/stm32f0xx_ll_rtc.h ****   *         DR           DU            LL_RTC_DATE_Config\n
1560:Drivers/STM32F0xx_HAL_Driver/Inc/stm32f0xx_ll_rtc.h ****   *         DR           YT            LL_RTC_DATE_Config\n
1561:Drivers/STM32F0xx_HAL_Driver/Inc/stm32f0xx_ll_rtc.h ****   *         DR           YU            LL_RTC_DATE_Config
1562:Drivers/STM32F0xx_HAL_Driver/Inc/stm32f0xx_ll_rtc.h ****   * @param  RTCx RTC Instance
1563:Drivers/STM32F0xx_HAL_Driver/Inc/stm32f0xx_ll_rtc.h ****   * @param  WeekDay This parameter can be one of the following values:
ARM GAS  C:\Users\strag\AppData\Local\Temp\ccM4RwII.s 			page 41


1564:Drivers/STM32F0xx_HAL_Driver/Inc/stm32f0xx_ll_rtc.h ****   *         @arg @ref LL_RTC_WEEKDAY_MONDAY
1565:Drivers/STM32F0xx_HAL_Driver/Inc/stm32f0xx_ll_rtc.h ****   *         @arg @ref LL_RTC_WEEKDAY_TUESDAY
1566:Drivers/STM32F0xx_HAL_Driver/Inc/stm32f0xx_ll_rtc.h ****   *         @arg @ref LL_RTC_WEEKDAY_WEDNESDAY
1567:Drivers/STM32F0xx_HAL_Driver/Inc/stm32f0xx_ll_rtc.h ****   *         @arg @ref LL_RTC_WEEKDAY_THURSDAY
1568:Drivers/STM32F0xx_HAL_Driver/Inc/stm32f0xx_ll_rtc.h ****   *         @arg @ref LL_RTC_WEEKDAY_FRIDAY
1569:Drivers/STM32F0xx_HAL_Driver/Inc/stm32f0xx_ll_rtc.h ****   *         @arg @ref LL_RTC_WEEKDAY_SATURDAY
1570:Drivers/STM32F0xx_HAL_Driver/Inc/stm32f0xx_ll_rtc.h ****   *         @arg @ref LL_RTC_WEEKDAY_SUNDAY
1571:Drivers/STM32F0xx_HAL_Driver/Inc/stm32f0xx_ll_rtc.h ****   * @param  Day Value between Min_Data=0x01 and Max_Data=0x31
1572:Drivers/STM32F0xx_HAL_Driver/Inc/stm32f0xx_ll_rtc.h ****   * @param  Month This parameter can be one of the following values:
1573:Drivers/STM32F0xx_HAL_Driver/Inc/stm32f0xx_ll_rtc.h ****   *         @arg @ref LL_RTC_MONTH_JANUARY
1574:Drivers/STM32F0xx_HAL_Driver/Inc/stm32f0xx_ll_rtc.h ****   *         @arg @ref LL_RTC_MONTH_FEBRUARY
1575:Drivers/STM32F0xx_HAL_Driver/Inc/stm32f0xx_ll_rtc.h ****   *         @arg @ref LL_RTC_MONTH_MARCH
1576:Drivers/STM32F0xx_HAL_Driver/Inc/stm32f0xx_ll_rtc.h ****   *         @arg @ref LL_RTC_MONTH_APRIL
1577:Drivers/STM32F0xx_HAL_Driver/Inc/stm32f0xx_ll_rtc.h ****   *         @arg @ref LL_RTC_MONTH_MAY
1578:Drivers/STM32F0xx_HAL_Driver/Inc/stm32f0xx_ll_rtc.h ****   *         @arg @ref LL_RTC_MONTH_JUNE
1579:Drivers/STM32F0xx_HAL_Driver/Inc/stm32f0xx_ll_rtc.h ****   *         @arg @ref LL_RTC_MONTH_JULY
1580:Drivers/STM32F0xx_HAL_Driver/Inc/stm32f0xx_ll_rtc.h ****   *         @arg @ref LL_RTC_MONTH_AUGUST
1581:Drivers/STM32F0xx_HAL_Driver/Inc/stm32f0xx_ll_rtc.h ****   *         @arg @ref LL_RTC_MONTH_SEPTEMBER
1582:Drivers/STM32F0xx_HAL_Driver/Inc/stm32f0xx_ll_rtc.h ****   *         @arg @ref LL_RTC_MONTH_OCTOBER
1583:Drivers/STM32F0xx_HAL_Driver/Inc/stm32f0xx_ll_rtc.h ****   *         @arg @ref LL_RTC_MONTH_NOVEMBER
1584:Drivers/STM32F0xx_HAL_Driver/Inc/stm32f0xx_ll_rtc.h ****   *         @arg @ref LL_RTC_MONTH_DECEMBER
1585:Drivers/STM32F0xx_HAL_Driver/Inc/stm32f0xx_ll_rtc.h ****   * @param  Year Value between Min_Data=0x00 and Max_Data=0x99
1586:Drivers/STM32F0xx_HAL_Driver/Inc/stm32f0xx_ll_rtc.h ****   * @retval None
1587:Drivers/STM32F0xx_HAL_Driver/Inc/stm32f0xx_ll_rtc.h ****   */
1588:Drivers/STM32F0xx_HAL_Driver/Inc/stm32f0xx_ll_rtc.h **** __STATIC_INLINE void LL_RTC_DATE_Config(RTC_TypeDef *RTCx, uint32_t WeekDay, uint32_t Day, uint32_t
1589:Drivers/STM32F0xx_HAL_Driver/Inc/stm32f0xx_ll_rtc.h **** {
1590:Drivers/STM32F0xx_HAL_Driver/Inc/stm32f0xx_ll_rtc.h ****   register uint32_t temp = 0U;
1591:Drivers/STM32F0xx_HAL_Driver/Inc/stm32f0xx_ll_rtc.h **** 
1592:Drivers/STM32F0xx_HAL_Driver/Inc/stm32f0xx_ll_rtc.h ****   temp = (WeekDay << RTC_DR_WDU_Pos)                                                        | \
1593:Drivers/STM32F0xx_HAL_Driver/Inc/stm32f0xx_ll_rtc.h ****          (((Year & 0xF0U) << (RTC_DR_YT_Pos - 4U)) | ((Year & 0x0FU) << RTC_DR_YU_Pos))   | \
1594:Drivers/STM32F0xx_HAL_Driver/Inc/stm32f0xx_ll_rtc.h ****          (((Month & 0xF0U) << (RTC_DR_MT_Pos - 4U)) | ((Month & 0x0FU) << RTC_DR_MU_Pos)) | \
1595:Drivers/STM32F0xx_HAL_Driver/Inc/stm32f0xx_ll_rtc.h ****          (((Day & 0xF0U) << (RTC_DR_DT_Pos - 4U)) | ((Day & 0x0FU) << RTC_DR_DU_Pos));
1596:Drivers/STM32F0xx_HAL_Driver/Inc/stm32f0xx_ll_rtc.h **** 
1597:Drivers/STM32F0xx_HAL_Driver/Inc/stm32f0xx_ll_rtc.h ****   MODIFY_REG(RTCx->DR, (RTC_DR_WDU | RTC_DR_MT | RTC_DR_MU | RTC_DR_DT | RTC_DR_DU | RTC_DR_YT | RT
1598:Drivers/STM32F0xx_HAL_Driver/Inc/stm32f0xx_ll_rtc.h **** }
1599:Drivers/STM32F0xx_HAL_Driver/Inc/stm32f0xx_ll_rtc.h **** 
1600:Drivers/STM32F0xx_HAL_Driver/Inc/stm32f0xx_ll_rtc.h **** /**
1601:Drivers/STM32F0xx_HAL_Driver/Inc/stm32f0xx_ll_rtc.h ****   * @brief  Get date (WeekDay, Day, Month and Year) in BCD format
1602:Drivers/STM32F0xx_HAL_Driver/Inc/stm32f0xx_ll_rtc.h ****   * @note if shadow mode is disabled (BYPSHAD=0), need to check if RSF flag is set
1603:Drivers/STM32F0xx_HAL_Driver/Inc/stm32f0xx_ll_rtc.h ****   *       before reading this bit
1604:Drivers/STM32F0xx_HAL_Driver/Inc/stm32f0xx_ll_rtc.h ****   * @note helper macros __LL_RTC_GET_WEEKDAY, __LL_RTC_GET_YEAR, __LL_RTC_GET_MONTH,
1605:Drivers/STM32F0xx_HAL_Driver/Inc/stm32f0xx_ll_rtc.h ****   * and __LL_RTC_GET_DAY are available to get independently each parameter.
1606:Drivers/STM32F0xx_HAL_Driver/Inc/stm32f0xx_ll_rtc.h ****   * @rmtoll DR           WDU           LL_RTC_DATE_Get\n
1607:Drivers/STM32F0xx_HAL_Driver/Inc/stm32f0xx_ll_rtc.h ****   *         DR           MT            LL_RTC_DATE_Get\n
1608:Drivers/STM32F0xx_HAL_Driver/Inc/stm32f0xx_ll_rtc.h ****   *         DR           MU            LL_RTC_DATE_Get\n
1609:Drivers/STM32F0xx_HAL_Driver/Inc/stm32f0xx_ll_rtc.h ****   *         DR           DT            LL_RTC_DATE_Get\n
1610:Drivers/STM32F0xx_HAL_Driver/Inc/stm32f0xx_ll_rtc.h ****   *         DR           DU            LL_RTC_DATE_Get\n
1611:Drivers/STM32F0xx_HAL_Driver/Inc/stm32f0xx_ll_rtc.h ****   *         DR           YT            LL_RTC_DATE_Get\n
1612:Drivers/STM32F0xx_HAL_Driver/Inc/stm32f0xx_ll_rtc.h ****   *         DR           YU            LL_RTC_DATE_Get
1613:Drivers/STM32F0xx_HAL_Driver/Inc/stm32f0xx_ll_rtc.h ****   * @param  RTCx RTC Instance
1614:Drivers/STM32F0xx_HAL_Driver/Inc/stm32f0xx_ll_rtc.h ****   * @retval Combination of WeekDay, Day, Month and Year (Format: 0xWWDDMMYY).
1615:Drivers/STM32F0xx_HAL_Driver/Inc/stm32f0xx_ll_rtc.h ****   */
1616:Drivers/STM32F0xx_HAL_Driver/Inc/stm32f0xx_ll_rtc.h **** __STATIC_INLINE uint32_t LL_RTC_DATE_Get(RTC_TypeDef *RTCx)
1617:Drivers/STM32F0xx_HAL_Driver/Inc/stm32f0xx_ll_rtc.h **** {
1618:Drivers/STM32F0xx_HAL_Driver/Inc/stm32f0xx_ll_rtc.h ****   register uint32_t temp = 0U;
1619:Drivers/STM32F0xx_HAL_Driver/Inc/stm32f0xx_ll_rtc.h ****   
1620:Drivers/STM32F0xx_HAL_Driver/Inc/stm32f0xx_ll_rtc.h ****   temp = READ_BIT(RTCx->DR, (RTC_DR_WDU | RTC_DR_MT | RTC_DR_MU | RTC_DR_DT | RTC_DR_DU | RTC_DR_YT
ARM GAS  C:\Users\strag\AppData\Local\Temp\ccM4RwII.s 			page 42


1621:Drivers/STM32F0xx_HAL_Driver/Inc/stm32f0xx_ll_rtc.h ****   return (uint32_t)((((temp & RTC_DR_WDU) >> RTC_DR_WDU_Pos) << RTC_OFFSET_WEEKDAY) | \
1622:Drivers/STM32F0xx_HAL_Driver/Inc/stm32f0xx_ll_rtc.h ****                     (((((temp & RTC_DR_DT) >> RTC_DR_DT_Pos) << 4U) | ((temp & RTC_DR_DU) >> RTC_DR
1623:Drivers/STM32F0xx_HAL_Driver/Inc/stm32f0xx_ll_rtc.h ****                     (((((temp & RTC_DR_MT) >> RTC_DR_MT_Pos) << 4U) | ((temp & RTC_DR_MU) >> RTC_DR
1624:Drivers/STM32F0xx_HAL_Driver/Inc/stm32f0xx_ll_rtc.h ****                     ((((temp & RTC_DR_YT) >> RTC_DR_YT_Pos) << 4U) | ((temp & RTC_DR_YU) >> RTC_DR_
1625:Drivers/STM32F0xx_HAL_Driver/Inc/stm32f0xx_ll_rtc.h **** }
1626:Drivers/STM32F0xx_HAL_Driver/Inc/stm32f0xx_ll_rtc.h **** 
1627:Drivers/STM32F0xx_HAL_Driver/Inc/stm32f0xx_ll_rtc.h **** /**
1628:Drivers/STM32F0xx_HAL_Driver/Inc/stm32f0xx_ll_rtc.h ****   * @}
1629:Drivers/STM32F0xx_HAL_Driver/Inc/stm32f0xx_ll_rtc.h ****   */
1630:Drivers/STM32F0xx_HAL_Driver/Inc/stm32f0xx_ll_rtc.h **** 
1631:Drivers/STM32F0xx_HAL_Driver/Inc/stm32f0xx_ll_rtc.h **** /** @defgroup RTC_LL_EF_ALARMA ALARMA
1632:Drivers/STM32F0xx_HAL_Driver/Inc/stm32f0xx_ll_rtc.h ****   * @{
1633:Drivers/STM32F0xx_HAL_Driver/Inc/stm32f0xx_ll_rtc.h ****   */
1634:Drivers/STM32F0xx_HAL_Driver/Inc/stm32f0xx_ll_rtc.h **** 
1635:Drivers/STM32F0xx_HAL_Driver/Inc/stm32f0xx_ll_rtc.h **** /**
1636:Drivers/STM32F0xx_HAL_Driver/Inc/stm32f0xx_ll_rtc.h ****   * @brief  Enable Alarm A
1637:Drivers/STM32F0xx_HAL_Driver/Inc/stm32f0xx_ll_rtc.h ****   * @note   Bit is write-protected. @ref LL_RTC_DisableWriteProtection function should be called be
1638:Drivers/STM32F0xx_HAL_Driver/Inc/stm32f0xx_ll_rtc.h ****   * @rmtoll CR           ALRAE         LL_RTC_ALMA_Enable
1639:Drivers/STM32F0xx_HAL_Driver/Inc/stm32f0xx_ll_rtc.h ****   * @param  RTCx RTC Instance
1640:Drivers/STM32F0xx_HAL_Driver/Inc/stm32f0xx_ll_rtc.h ****   * @retval None
1641:Drivers/STM32F0xx_HAL_Driver/Inc/stm32f0xx_ll_rtc.h ****   */
1642:Drivers/STM32F0xx_HAL_Driver/Inc/stm32f0xx_ll_rtc.h **** __STATIC_INLINE void LL_RTC_ALMA_Enable(RTC_TypeDef *RTCx)
1643:Drivers/STM32F0xx_HAL_Driver/Inc/stm32f0xx_ll_rtc.h **** {
1644:Drivers/STM32F0xx_HAL_Driver/Inc/stm32f0xx_ll_rtc.h ****   SET_BIT(RTCx->CR, RTC_CR_ALRAE);
1645:Drivers/STM32F0xx_HAL_Driver/Inc/stm32f0xx_ll_rtc.h **** }
1646:Drivers/STM32F0xx_HAL_Driver/Inc/stm32f0xx_ll_rtc.h **** 
1647:Drivers/STM32F0xx_HAL_Driver/Inc/stm32f0xx_ll_rtc.h **** /**
1648:Drivers/STM32F0xx_HAL_Driver/Inc/stm32f0xx_ll_rtc.h ****   * @brief  Disable Alarm A
1649:Drivers/STM32F0xx_HAL_Driver/Inc/stm32f0xx_ll_rtc.h ****   * @note   Bit is write-protected. @ref LL_RTC_DisableWriteProtection function should be called be
1650:Drivers/STM32F0xx_HAL_Driver/Inc/stm32f0xx_ll_rtc.h ****   * @rmtoll CR           ALRAE         LL_RTC_ALMA_Disable
1651:Drivers/STM32F0xx_HAL_Driver/Inc/stm32f0xx_ll_rtc.h ****   * @param  RTCx RTC Instance
1652:Drivers/STM32F0xx_HAL_Driver/Inc/stm32f0xx_ll_rtc.h ****   * @retval None
1653:Drivers/STM32F0xx_HAL_Driver/Inc/stm32f0xx_ll_rtc.h ****   */
1654:Drivers/STM32F0xx_HAL_Driver/Inc/stm32f0xx_ll_rtc.h **** __STATIC_INLINE void LL_RTC_ALMA_Disable(RTC_TypeDef *RTCx)
1655:Drivers/STM32F0xx_HAL_Driver/Inc/stm32f0xx_ll_rtc.h **** {
1656:Drivers/STM32F0xx_HAL_Driver/Inc/stm32f0xx_ll_rtc.h ****   CLEAR_BIT(RTCx->CR, RTC_CR_ALRAE);
1657:Drivers/STM32F0xx_HAL_Driver/Inc/stm32f0xx_ll_rtc.h **** }
1658:Drivers/STM32F0xx_HAL_Driver/Inc/stm32f0xx_ll_rtc.h **** 
1659:Drivers/STM32F0xx_HAL_Driver/Inc/stm32f0xx_ll_rtc.h **** /**
1660:Drivers/STM32F0xx_HAL_Driver/Inc/stm32f0xx_ll_rtc.h ****   * @brief  Specify the Alarm A masks.
1661:Drivers/STM32F0xx_HAL_Driver/Inc/stm32f0xx_ll_rtc.h ****   * @rmtoll ALRMAR       MSK4          LL_RTC_ALMA_SetMask\n
1662:Drivers/STM32F0xx_HAL_Driver/Inc/stm32f0xx_ll_rtc.h ****   *         ALRMAR       MSK3          LL_RTC_ALMA_SetMask\n
1663:Drivers/STM32F0xx_HAL_Driver/Inc/stm32f0xx_ll_rtc.h ****   *         ALRMAR       MSK2          LL_RTC_ALMA_SetMask\n
1664:Drivers/STM32F0xx_HAL_Driver/Inc/stm32f0xx_ll_rtc.h ****   *         ALRMAR       MSK1          LL_RTC_ALMA_SetMask
1665:Drivers/STM32F0xx_HAL_Driver/Inc/stm32f0xx_ll_rtc.h ****   * @param  RTCx RTC Instance
1666:Drivers/STM32F0xx_HAL_Driver/Inc/stm32f0xx_ll_rtc.h ****   * @param  Mask This parameter can be a combination of the following values:
1667:Drivers/STM32F0xx_HAL_Driver/Inc/stm32f0xx_ll_rtc.h ****   *         @arg @ref LL_RTC_ALMA_MASK_NONE
1668:Drivers/STM32F0xx_HAL_Driver/Inc/stm32f0xx_ll_rtc.h ****   *         @arg @ref LL_RTC_ALMA_MASK_DATEWEEKDAY
1669:Drivers/STM32F0xx_HAL_Driver/Inc/stm32f0xx_ll_rtc.h ****   *         @arg @ref LL_RTC_ALMA_MASK_HOURS
1670:Drivers/STM32F0xx_HAL_Driver/Inc/stm32f0xx_ll_rtc.h ****   *         @arg @ref LL_RTC_ALMA_MASK_MINUTES
1671:Drivers/STM32F0xx_HAL_Driver/Inc/stm32f0xx_ll_rtc.h ****   *         @arg @ref LL_RTC_ALMA_MASK_SECONDS
1672:Drivers/STM32F0xx_HAL_Driver/Inc/stm32f0xx_ll_rtc.h ****   *         @arg @ref LL_RTC_ALMA_MASK_ALL
1673:Drivers/STM32F0xx_HAL_Driver/Inc/stm32f0xx_ll_rtc.h ****   * @retval None
1674:Drivers/STM32F0xx_HAL_Driver/Inc/stm32f0xx_ll_rtc.h ****   */
1675:Drivers/STM32F0xx_HAL_Driver/Inc/stm32f0xx_ll_rtc.h **** __STATIC_INLINE void LL_RTC_ALMA_SetMask(RTC_TypeDef *RTCx, uint32_t Mask)
1676:Drivers/STM32F0xx_HAL_Driver/Inc/stm32f0xx_ll_rtc.h **** {
1677:Drivers/STM32F0xx_HAL_Driver/Inc/stm32f0xx_ll_rtc.h ****   MODIFY_REG(RTCx->ALRMAR, RTC_ALRMAR_MSK4 | RTC_ALRMAR_MSK3 | RTC_ALRMAR_MSK2 | RTC_ALRMAR_MSK1, M
ARM GAS  C:\Users\strag\AppData\Local\Temp\ccM4RwII.s 			page 43


1678:Drivers/STM32F0xx_HAL_Driver/Inc/stm32f0xx_ll_rtc.h **** }
1679:Drivers/STM32F0xx_HAL_Driver/Inc/stm32f0xx_ll_rtc.h **** 
1680:Drivers/STM32F0xx_HAL_Driver/Inc/stm32f0xx_ll_rtc.h **** /**
1681:Drivers/STM32F0xx_HAL_Driver/Inc/stm32f0xx_ll_rtc.h ****   * @brief  Get the Alarm A masks.
1682:Drivers/STM32F0xx_HAL_Driver/Inc/stm32f0xx_ll_rtc.h ****   * @rmtoll ALRMAR       MSK4          LL_RTC_ALMA_GetMask\n
1683:Drivers/STM32F0xx_HAL_Driver/Inc/stm32f0xx_ll_rtc.h ****   *         ALRMAR       MSK3          LL_RTC_ALMA_GetMask\n
1684:Drivers/STM32F0xx_HAL_Driver/Inc/stm32f0xx_ll_rtc.h ****   *         ALRMAR       MSK2          LL_RTC_ALMA_GetMask\n
1685:Drivers/STM32F0xx_HAL_Driver/Inc/stm32f0xx_ll_rtc.h ****   *         ALRMAR       MSK1          LL_RTC_ALMA_GetMask
1686:Drivers/STM32F0xx_HAL_Driver/Inc/stm32f0xx_ll_rtc.h ****   * @param  RTCx RTC Instance
1687:Drivers/STM32F0xx_HAL_Driver/Inc/stm32f0xx_ll_rtc.h ****   * @retval Returned value can be can be a combination of the following values:
1688:Drivers/STM32F0xx_HAL_Driver/Inc/stm32f0xx_ll_rtc.h ****   *         @arg @ref LL_RTC_ALMA_MASK_NONE
1689:Drivers/STM32F0xx_HAL_Driver/Inc/stm32f0xx_ll_rtc.h ****   *         @arg @ref LL_RTC_ALMA_MASK_DATEWEEKDAY
1690:Drivers/STM32F0xx_HAL_Driver/Inc/stm32f0xx_ll_rtc.h ****   *         @arg @ref LL_RTC_ALMA_MASK_HOURS
1691:Drivers/STM32F0xx_HAL_Driver/Inc/stm32f0xx_ll_rtc.h ****   *         @arg @ref LL_RTC_ALMA_MASK_MINUTES
1692:Drivers/STM32F0xx_HAL_Driver/Inc/stm32f0xx_ll_rtc.h ****   *         @arg @ref LL_RTC_ALMA_MASK_SECONDS
1693:Drivers/STM32F0xx_HAL_Driver/Inc/stm32f0xx_ll_rtc.h ****   *         @arg @ref LL_RTC_ALMA_MASK_ALL
1694:Drivers/STM32F0xx_HAL_Driver/Inc/stm32f0xx_ll_rtc.h ****   */
1695:Drivers/STM32F0xx_HAL_Driver/Inc/stm32f0xx_ll_rtc.h **** __STATIC_INLINE uint32_t LL_RTC_ALMA_GetMask(RTC_TypeDef *RTCx)
1696:Drivers/STM32F0xx_HAL_Driver/Inc/stm32f0xx_ll_rtc.h **** {
1697:Drivers/STM32F0xx_HAL_Driver/Inc/stm32f0xx_ll_rtc.h ****   return (uint32_t)(READ_BIT(RTCx->ALRMAR, RTC_ALRMAR_MSK4 | RTC_ALRMAR_MSK3 | RTC_ALRMAR_MSK2 | RT
1698:Drivers/STM32F0xx_HAL_Driver/Inc/stm32f0xx_ll_rtc.h **** }
1699:Drivers/STM32F0xx_HAL_Driver/Inc/stm32f0xx_ll_rtc.h **** 
1700:Drivers/STM32F0xx_HAL_Driver/Inc/stm32f0xx_ll_rtc.h **** /**
1701:Drivers/STM32F0xx_HAL_Driver/Inc/stm32f0xx_ll_rtc.h ****   * @brief  Enable AlarmA Week day selection (DU[3:0] represents the week day. DT[1:0] is do not ca
1702:Drivers/STM32F0xx_HAL_Driver/Inc/stm32f0xx_ll_rtc.h ****   * @rmtoll ALRMAR       WDSEL         LL_RTC_ALMA_EnableWeekday
1703:Drivers/STM32F0xx_HAL_Driver/Inc/stm32f0xx_ll_rtc.h ****   * @param  RTCx RTC Instance
1704:Drivers/STM32F0xx_HAL_Driver/Inc/stm32f0xx_ll_rtc.h ****   * @retval None
1705:Drivers/STM32F0xx_HAL_Driver/Inc/stm32f0xx_ll_rtc.h ****   */
1706:Drivers/STM32F0xx_HAL_Driver/Inc/stm32f0xx_ll_rtc.h **** __STATIC_INLINE void LL_RTC_ALMA_EnableWeekday(RTC_TypeDef *RTCx)
1707:Drivers/STM32F0xx_HAL_Driver/Inc/stm32f0xx_ll_rtc.h **** {
1708:Drivers/STM32F0xx_HAL_Driver/Inc/stm32f0xx_ll_rtc.h ****   SET_BIT(RTCx->ALRMAR, RTC_ALRMAR_WDSEL);
1709:Drivers/STM32F0xx_HAL_Driver/Inc/stm32f0xx_ll_rtc.h **** }
1710:Drivers/STM32F0xx_HAL_Driver/Inc/stm32f0xx_ll_rtc.h **** 
1711:Drivers/STM32F0xx_HAL_Driver/Inc/stm32f0xx_ll_rtc.h **** /**
1712:Drivers/STM32F0xx_HAL_Driver/Inc/stm32f0xx_ll_rtc.h ****   * @brief  Disable AlarmA Week day selection (DU[3:0] represents the date )
1713:Drivers/STM32F0xx_HAL_Driver/Inc/stm32f0xx_ll_rtc.h ****   * @rmtoll ALRMAR       WDSEL         LL_RTC_ALMA_DisableWeekday
1714:Drivers/STM32F0xx_HAL_Driver/Inc/stm32f0xx_ll_rtc.h ****   * @param  RTCx RTC Instance
1715:Drivers/STM32F0xx_HAL_Driver/Inc/stm32f0xx_ll_rtc.h ****   * @retval None
1716:Drivers/STM32F0xx_HAL_Driver/Inc/stm32f0xx_ll_rtc.h ****   */
1717:Drivers/STM32F0xx_HAL_Driver/Inc/stm32f0xx_ll_rtc.h **** __STATIC_INLINE void LL_RTC_ALMA_DisableWeekday(RTC_TypeDef *RTCx)
1718:Drivers/STM32F0xx_HAL_Driver/Inc/stm32f0xx_ll_rtc.h **** {
1719:Drivers/STM32F0xx_HAL_Driver/Inc/stm32f0xx_ll_rtc.h ****   CLEAR_BIT(RTCx->ALRMAR, RTC_ALRMAR_WDSEL);
 197              		.loc 2 1719 0
 198 0038 E269     		ldr	r2, [r4, #28]
 199              	.LVL11:
 200 003a 404B     		ldr	r3, .L14
 201 003c 1340     		ands	r3, r2
 202 003e E361     		str	r3, [r4, #28]
 203              	.LVL12:
 204              	.LBE103:
 205              	.LBE102:
 529:Drivers/STM32F0xx_HAL_Driver/Src/stm32f0xx_ll_rtc.c ****   {
 530:Drivers/STM32F0xx_HAL_Driver/Src/stm32f0xx_ll_rtc.c ****     /* Set the date for ALARM */
 531:Drivers/STM32F0xx_HAL_Driver/Src/stm32f0xx_ll_rtc.c ****     LL_RTC_ALMA_DisableWeekday(RTCx);
 532:Drivers/STM32F0xx_HAL_Driver/Src/stm32f0xx_ll_rtc.c ****     if (RTC_Format != LL_RTC_FORMAT_BIN)
 206              		.loc 1 532 0
 207 0040 002E     		cmp	r6, #0
ARM GAS  C:\Users\strag\AppData\Local\Temp\ccM4RwII.s 			page 44


 208 0042 07D0     		beq	.L10
 533:Drivers/STM32F0xx_HAL_Driver/Src/stm32f0xx_ll_rtc.c ****     {
 534:Drivers/STM32F0xx_HAL_Driver/Src/stm32f0xx_ll_rtc.c ****       LL_RTC_ALMA_SetDay(RTCx, RTC_AlarmStruct->AlarmDateWeekDay);
 209              		.loc 1 534 0
 210 0044 2A7C     		ldrb	r2, [r5, #16]
 211              	.LVL13:
 212              	.LBB104:
 213              	.LBB105:
1720:Drivers/STM32F0xx_HAL_Driver/Inc/stm32f0xx_ll_rtc.h **** }
1721:Drivers/STM32F0xx_HAL_Driver/Inc/stm32f0xx_ll_rtc.h **** 
1722:Drivers/STM32F0xx_HAL_Driver/Inc/stm32f0xx_ll_rtc.h **** /**
1723:Drivers/STM32F0xx_HAL_Driver/Inc/stm32f0xx_ll_rtc.h ****   * @brief  Set ALARM A Day in BCD format
1724:Drivers/STM32F0xx_HAL_Driver/Inc/stm32f0xx_ll_rtc.h ****   * @note helper macro __LL_RTC_CONVERT_BIN2BCD is available to convert Day from binary to BCD form
1725:Drivers/STM32F0xx_HAL_Driver/Inc/stm32f0xx_ll_rtc.h ****   * @rmtoll ALRMAR       DT            LL_RTC_ALMA_SetDay\n
1726:Drivers/STM32F0xx_HAL_Driver/Inc/stm32f0xx_ll_rtc.h ****   *         ALRMAR       DU            LL_RTC_ALMA_SetDay
1727:Drivers/STM32F0xx_HAL_Driver/Inc/stm32f0xx_ll_rtc.h ****   * @param  RTCx RTC Instance
1728:Drivers/STM32F0xx_HAL_Driver/Inc/stm32f0xx_ll_rtc.h ****   * @param  Day Value between Min_Data=0x01 and Max_Data=0x31
1729:Drivers/STM32F0xx_HAL_Driver/Inc/stm32f0xx_ll_rtc.h ****   * @retval None
1730:Drivers/STM32F0xx_HAL_Driver/Inc/stm32f0xx_ll_rtc.h ****   */
1731:Drivers/STM32F0xx_HAL_Driver/Inc/stm32f0xx_ll_rtc.h **** __STATIC_INLINE void LL_RTC_ALMA_SetDay(RTC_TypeDef *RTCx, uint32_t Day)
1732:Drivers/STM32F0xx_HAL_Driver/Inc/stm32f0xx_ll_rtc.h **** {
1733:Drivers/STM32F0xx_HAL_Driver/Inc/stm32f0xx_ll_rtc.h ****   MODIFY_REG(RTCx->ALRMAR, (RTC_ALRMAR_DT | RTC_ALRMAR_DU),
 214              		.loc 2 1733 0
 215 0046 E169     		ldr	r1, [r4, #28]
 216              	.LVL14:
 217 0048 3D4B     		ldr	r3, .L14+4
 218 004a 0B40     		ands	r3, r1
 219 004c 1206     		lsls	r2, r2, #24
 220              	.LVL15:
 221 004e 1343     		orrs	r3, r2
 222 0050 E361     		str	r3, [r4, #28]
 223              	.LVL16:
 224 0052 1FE0     		b	.L11
 225              	.LVL17:
 226              	.L10:
 227              	.LBE105:
 228              	.LBE104:
 535:Drivers/STM32F0xx_HAL_Driver/Src/stm32f0xx_ll_rtc.c ****     }
 536:Drivers/STM32F0xx_HAL_Driver/Src/stm32f0xx_ll_rtc.c ****     else
 537:Drivers/STM32F0xx_HAL_Driver/Src/stm32f0xx_ll_rtc.c ****     {
 538:Drivers/STM32F0xx_HAL_Driver/Src/stm32f0xx_ll_rtc.c ****       LL_RTC_ALMA_SetDay(RTCx, __LL_RTC_CONVERT_BIN2BCD(RTC_AlarmStruct->AlarmDateWeekDay));
 229              		.loc 1 538 0
 230 0054 2F7C     		ldrb	r7, [r5, #16]
 231 0056 0A21     		movs	r1, #10
 232              	.LVL18:
 233 0058 3800     		movs	r0, r7
 234              	.LVL19:
 235 005a FFF7FEFF 		bl	__aeabi_uidiv
 236              	.LVL20:
 237 005e 0301     		lsls	r3, r0, #4
 238 0060 9846     		mov	r8, r3
 239 0062 0A21     		movs	r1, #10
 240 0064 3800     		movs	r0, r7
 241 0066 FFF7FEFF 		bl	__aeabi_uidivmod
 242              	.LVL21:
 243 006a 4346     		mov	r3, r8
 244 006c 1943     		orrs	r1, r3
ARM GAS  C:\Users\strag\AppData\Local\Temp\ccM4RwII.s 			page 45


 245              	.LVL22:
 246              	.LBB106:
 247              	.LBB107:
 248              		.loc 2 1733 0
 249 006e E069     		ldr	r0, [r4, #28]
 250 0070 334B     		ldr	r3, .L14+4
 251 0072 1840     		ands	r0, r3
 252 0074 0906     		lsls	r1, r1, #24
 253              	.LVL23:
 254 0076 0143     		orrs	r1, r0
 255 0078 E161     		str	r1, [r4, #28]
 256 007a 0BE0     		b	.L11
 257              	.LVL24:
 258              	.L9:
 259              	.LBE107:
 260              	.LBE106:
 261              	.LBB108:
 262              	.LBB109:
1708:Drivers/STM32F0xx_HAL_Driver/Inc/stm32f0xx_ll_rtc.h **** }
 263              		.loc 2 1708 0
 264 007c E369     		ldr	r3, [r4, #28]
 265 007e 8022     		movs	r2, #128
 266              	.LVL25:
 267 0080 D205     		lsls	r2, r2, #23
 268 0082 1343     		orrs	r3, r2
 269 0084 E361     		str	r3, [r4, #28]
 270              	.LVL26:
 271              	.LBE109:
 272              	.LBE108:
 539:Drivers/STM32F0xx_HAL_Driver/Src/stm32f0xx_ll_rtc.c ****     }
 540:Drivers/STM32F0xx_HAL_Driver/Src/stm32f0xx_ll_rtc.c ****   }
 541:Drivers/STM32F0xx_HAL_Driver/Src/stm32f0xx_ll_rtc.c ****   else
 542:Drivers/STM32F0xx_HAL_Driver/Src/stm32f0xx_ll_rtc.c ****   {
 543:Drivers/STM32F0xx_HAL_Driver/Src/stm32f0xx_ll_rtc.c ****     /* Set the week day for ALARM */
 544:Drivers/STM32F0xx_HAL_Driver/Src/stm32f0xx_ll_rtc.c ****     LL_RTC_ALMA_EnableWeekday(RTCx);
 545:Drivers/STM32F0xx_HAL_Driver/Src/stm32f0xx_ll_rtc.c ****     LL_RTC_ALMA_SetWeekDay(RTCx, RTC_AlarmStruct->AlarmDateWeekDay);
 273              		.loc 1 545 0
 274 0086 2A7C     		ldrb	r2, [r5, #16]
 275              	.LVL27:
 276              	.LBB110:
 277              	.LBB111:
1734:Drivers/STM32F0xx_HAL_Driver/Inc/stm32f0xx_ll_rtc.h ****              (((Day & 0xF0U) << (RTC_ALRMAR_DT_Pos - 4U)) | ((Day & 0x0FU) << RTC_ALRMAR_DU_Pos)));
1735:Drivers/STM32F0xx_HAL_Driver/Inc/stm32f0xx_ll_rtc.h **** }
1736:Drivers/STM32F0xx_HAL_Driver/Inc/stm32f0xx_ll_rtc.h **** 
1737:Drivers/STM32F0xx_HAL_Driver/Inc/stm32f0xx_ll_rtc.h **** /**
1738:Drivers/STM32F0xx_HAL_Driver/Inc/stm32f0xx_ll_rtc.h ****   * @brief  Get ALARM A Day in BCD format
1739:Drivers/STM32F0xx_HAL_Driver/Inc/stm32f0xx_ll_rtc.h ****   * @note helper macro __LL_RTC_CONVERT_BCD2BIN is available to convert Day from BCD to Binary form
1740:Drivers/STM32F0xx_HAL_Driver/Inc/stm32f0xx_ll_rtc.h ****   * @rmtoll ALRMAR       DT            LL_RTC_ALMA_GetDay\n
1741:Drivers/STM32F0xx_HAL_Driver/Inc/stm32f0xx_ll_rtc.h ****   *         ALRMAR       DU            LL_RTC_ALMA_GetDay
1742:Drivers/STM32F0xx_HAL_Driver/Inc/stm32f0xx_ll_rtc.h ****   * @param  RTCx RTC Instance
1743:Drivers/STM32F0xx_HAL_Driver/Inc/stm32f0xx_ll_rtc.h ****   * @retval Value between Min_Data=0x01 and Max_Data=0x31
1744:Drivers/STM32F0xx_HAL_Driver/Inc/stm32f0xx_ll_rtc.h ****   */
1745:Drivers/STM32F0xx_HAL_Driver/Inc/stm32f0xx_ll_rtc.h **** __STATIC_INLINE uint32_t LL_RTC_ALMA_GetDay(RTC_TypeDef *RTCx)
1746:Drivers/STM32F0xx_HAL_Driver/Inc/stm32f0xx_ll_rtc.h **** {
1747:Drivers/STM32F0xx_HAL_Driver/Inc/stm32f0xx_ll_rtc.h ****   register uint32_t temp = 0U;
1748:Drivers/STM32F0xx_HAL_Driver/Inc/stm32f0xx_ll_rtc.h **** 
1749:Drivers/STM32F0xx_HAL_Driver/Inc/stm32f0xx_ll_rtc.h ****   temp = READ_BIT(RTCx->ALRMAR, (RTC_ALRMAR_DT | RTC_ALRMAR_DU));
ARM GAS  C:\Users\strag\AppData\Local\Temp\ccM4RwII.s 			page 46


1750:Drivers/STM32F0xx_HAL_Driver/Inc/stm32f0xx_ll_rtc.h ****   return (uint32_t)((((temp & RTC_ALRMAR_DT) >> RTC_ALRMAR_DT_Pos) << 4U) | ((temp & RTC_ALRMAR_DU)
1751:Drivers/STM32F0xx_HAL_Driver/Inc/stm32f0xx_ll_rtc.h **** }
1752:Drivers/STM32F0xx_HAL_Driver/Inc/stm32f0xx_ll_rtc.h **** 
1753:Drivers/STM32F0xx_HAL_Driver/Inc/stm32f0xx_ll_rtc.h **** /**
1754:Drivers/STM32F0xx_HAL_Driver/Inc/stm32f0xx_ll_rtc.h ****   * @brief  Set ALARM A Weekday
1755:Drivers/STM32F0xx_HAL_Driver/Inc/stm32f0xx_ll_rtc.h ****   * @rmtoll ALRMAR       DU            LL_RTC_ALMA_SetWeekDay
1756:Drivers/STM32F0xx_HAL_Driver/Inc/stm32f0xx_ll_rtc.h ****   * @param  RTCx RTC Instance
1757:Drivers/STM32F0xx_HAL_Driver/Inc/stm32f0xx_ll_rtc.h ****   * @param  WeekDay This parameter can be one of the following values:
1758:Drivers/STM32F0xx_HAL_Driver/Inc/stm32f0xx_ll_rtc.h ****   *         @arg @ref LL_RTC_WEEKDAY_MONDAY
1759:Drivers/STM32F0xx_HAL_Driver/Inc/stm32f0xx_ll_rtc.h ****   *         @arg @ref LL_RTC_WEEKDAY_TUESDAY
1760:Drivers/STM32F0xx_HAL_Driver/Inc/stm32f0xx_ll_rtc.h ****   *         @arg @ref LL_RTC_WEEKDAY_WEDNESDAY
1761:Drivers/STM32F0xx_HAL_Driver/Inc/stm32f0xx_ll_rtc.h ****   *         @arg @ref LL_RTC_WEEKDAY_THURSDAY
1762:Drivers/STM32F0xx_HAL_Driver/Inc/stm32f0xx_ll_rtc.h ****   *         @arg @ref LL_RTC_WEEKDAY_FRIDAY
1763:Drivers/STM32F0xx_HAL_Driver/Inc/stm32f0xx_ll_rtc.h ****   *         @arg @ref LL_RTC_WEEKDAY_SATURDAY
1764:Drivers/STM32F0xx_HAL_Driver/Inc/stm32f0xx_ll_rtc.h ****   *         @arg @ref LL_RTC_WEEKDAY_SUNDAY
1765:Drivers/STM32F0xx_HAL_Driver/Inc/stm32f0xx_ll_rtc.h ****   * @retval None
1766:Drivers/STM32F0xx_HAL_Driver/Inc/stm32f0xx_ll_rtc.h ****   */
1767:Drivers/STM32F0xx_HAL_Driver/Inc/stm32f0xx_ll_rtc.h **** __STATIC_INLINE void LL_RTC_ALMA_SetWeekDay(RTC_TypeDef *RTCx, uint32_t WeekDay)
1768:Drivers/STM32F0xx_HAL_Driver/Inc/stm32f0xx_ll_rtc.h **** {
1769:Drivers/STM32F0xx_HAL_Driver/Inc/stm32f0xx_ll_rtc.h ****   MODIFY_REG(RTCx->ALRMAR, RTC_ALRMAR_DU, WeekDay << RTC_ALRMAR_DU_Pos);
 278              		.loc 2 1769 0
 279 0088 E169     		ldr	r1, [r4, #28]
 280              	.LVL28:
 281 008a 2E4B     		ldr	r3, .L14+8
 282 008c 0B40     		ands	r3, r1
 283 008e 1206     		lsls	r2, r2, #24
 284              	.LVL29:
 285 0090 1343     		orrs	r3, r2
 286 0092 E361     		str	r3, [r4, #28]
 287              	.LVL30:
 288              	.L11:
 289              	.LBE111:
 290              	.LBE110:
 546:Drivers/STM32F0xx_HAL_Driver/Src/stm32f0xx_ll_rtc.c ****   }
 547:Drivers/STM32F0xx_HAL_Driver/Src/stm32f0xx_ll_rtc.c **** 
 548:Drivers/STM32F0xx_HAL_Driver/Src/stm32f0xx_ll_rtc.c ****   /* Configure the Alarm register */
 549:Drivers/STM32F0xx_HAL_Driver/Src/stm32f0xx_ll_rtc.c ****   if (RTC_Format != LL_RTC_FORMAT_BIN)
 291              		.loc 1 549 0
 292 0094 002E     		cmp	r6, #0
 293 0096 0ED0     		beq	.L12
 550:Drivers/STM32F0xx_HAL_Driver/Src/stm32f0xx_ll_rtc.c ****   {
 551:Drivers/STM32F0xx_HAL_Driver/Src/stm32f0xx_ll_rtc.c ****     LL_RTC_ALMA_ConfigTime(RTCx, RTC_AlarmStruct->AlarmTime.TimeFormat, RTC_AlarmStruct->AlarmTime.
 294              		.loc 1 551 0
 295 0098 2B79     		ldrb	r3, [r5, #4]
 552:Drivers/STM32F0xx_HAL_Driver/Src/stm32f0xx_ll_rtc.c ****                            RTC_AlarmStruct->AlarmTime.Minutes, RTC_AlarmStruct->AlarmTime.Seconds);
 296              		.loc 1 552 0
 297 009a 6A79     		ldrb	r2, [r5, #5]
 298 009c A979     		ldrb	r1, [r5, #6]
 299              	.LVL31:
 300              	.LBB112:
 301              	.LBB113:
1770:Drivers/STM32F0xx_HAL_Driver/Inc/stm32f0xx_ll_rtc.h **** }
1771:Drivers/STM32F0xx_HAL_Driver/Inc/stm32f0xx_ll_rtc.h **** 
1772:Drivers/STM32F0xx_HAL_Driver/Inc/stm32f0xx_ll_rtc.h **** /**
1773:Drivers/STM32F0xx_HAL_Driver/Inc/stm32f0xx_ll_rtc.h ****   * @brief  Get ALARM A Weekday
1774:Drivers/STM32F0xx_HAL_Driver/Inc/stm32f0xx_ll_rtc.h ****   * @rmtoll ALRMAR       DU            LL_RTC_ALMA_GetWeekDay
1775:Drivers/STM32F0xx_HAL_Driver/Inc/stm32f0xx_ll_rtc.h ****   * @param  RTCx RTC Instance
ARM GAS  C:\Users\strag\AppData\Local\Temp\ccM4RwII.s 			page 47


1776:Drivers/STM32F0xx_HAL_Driver/Inc/stm32f0xx_ll_rtc.h ****   * @retval Returned value can be one of the following values:
1777:Drivers/STM32F0xx_HAL_Driver/Inc/stm32f0xx_ll_rtc.h ****   *         @arg @ref LL_RTC_WEEKDAY_MONDAY
1778:Drivers/STM32F0xx_HAL_Driver/Inc/stm32f0xx_ll_rtc.h ****   *         @arg @ref LL_RTC_WEEKDAY_TUESDAY
1779:Drivers/STM32F0xx_HAL_Driver/Inc/stm32f0xx_ll_rtc.h ****   *         @arg @ref LL_RTC_WEEKDAY_WEDNESDAY
1780:Drivers/STM32F0xx_HAL_Driver/Inc/stm32f0xx_ll_rtc.h ****   *         @arg @ref LL_RTC_WEEKDAY_THURSDAY
1781:Drivers/STM32F0xx_HAL_Driver/Inc/stm32f0xx_ll_rtc.h ****   *         @arg @ref LL_RTC_WEEKDAY_FRIDAY
1782:Drivers/STM32F0xx_HAL_Driver/Inc/stm32f0xx_ll_rtc.h ****   *         @arg @ref LL_RTC_WEEKDAY_SATURDAY
1783:Drivers/STM32F0xx_HAL_Driver/Inc/stm32f0xx_ll_rtc.h ****   *         @arg @ref LL_RTC_WEEKDAY_SUNDAY
1784:Drivers/STM32F0xx_HAL_Driver/Inc/stm32f0xx_ll_rtc.h ****   */
1785:Drivers/STM32F0xx_HAL_Driver/Inc/stm32f0xx_ll_rtc.h **** __STATIC_INLINE uint32_t LL_RTC_ALMA_GetWeekDay(RTC_TypeDef *RTCx)
1786:Drivers/STM32F0xx_HAL_Driver/Inc/stm32f0xx_ll_rtc.h **** {
1787:Drivers/STM32F0xx_HAL_Driver/Inc/stm32f0xx_ll_rtc.h ****   return (uint32_t)(READ_BIT(RTCx->ALRMAR, RTC_ALRMAR_DU) >> RTC_ALRMAR_DU_Pos);
1788:Drivers/STM32F0xx_HAL_Driver/Inc/stm32f0xx_ll_rtc.h **** }
1789:Drivers/STM32F0xx_HAL_Driver/Inc/stm32f0xx_ll_rtc.h **** 
1790:Drivers/STM32F0xx_HAL_Driver/Inc/stm32f0xx_ll_rtc.h **** /**
1791:Drivers/STM32F0xx_HAL_Driver/Inc/stm32f0xx_ll_rtc.h ****   * @brief  Set Alarm A time format (AM/24-hour or PM notation)
1792:Drivers/STM32F0xx_HAL_Driver/Inc/stm32f0xx_ll_rtc.h ****   * @rmtoll ALRMAR       PM            LL_RTC_ALMA_SetTimeFormat
1793:Drivers/STM32F0xx_HAL_Driver/Inc/stm32f0xx_ll_rtc.h ****   * @param  RTCx RTC Instance
1794:Drivers/STM32F0xx_HAL_Driver/Inc/stm32f0xx_ll_rtc.h ****   * @param  TimeFormat This parameter can be one of the following values:
1795:Drivers/STM32F0xx_HAL_Driver/Inc/stm32f0xx_ll_rtc.h ****   *         @arg @ref LL_RTC_ALMA_TIME_FORMAT_AM
1796:Drivers/STM32F0xx_HAL_Driver/Inc/stm32f0xx_ll_rtc.h ****   *         @arg @ref LL_RTC_ALMA_TIME_FORMAT_PM
1797:Drivers/STM32F0xx_HAL_Driver/Inc/stm32f0xx_ll_rtc.h ****   * @retval None
1798:Drivers/STM32F0xx_HAL_Driver/Inc/stm32f0xx_ll_rtc.h ****   */
1799:Drivers/STM32F0xx_HAL_Driver/Inc/stm32f0xx_ll_rtc.h **** __STATIC_INLINE void LL_RTC_ALMA_SetTimeFormat(RTC_TypeDef *RTCx, uint32_t TimeFormat)
