ARM GAS  C:\Users\strag\AppData\Local\Temp\cc8irbMQ.s 			page 1


   1              		.syntax unified
   2              		.cpu cortex-m0
   3              		.fpu softvfp
   4              		.eabi_attribute 20, 1
   5              		.eabi_attribute 21, 1
   6              		.eabi_attribute 23, 3
   7              		.eabi_attribute 24, 1
   8              		.eabi_attribute 25, 1
   9              		.eabi_attribute 26, 1
  10              		.eabi_attribute 30, 1
  11              		.eabi_attribute 34, 0
  12              		.eabi_attribute 18, 4
  13              		.thumb
  14              		.syntax unified
  15              		.file	"stm32f0xx_ll_exti.c"
  16              		.text
  17              	.Ltext0:
  18              		.cfi_sections	.debug_frame
  19              		.section	.text.LL_EXTI_DeInit,"ax",%progbits
  20              		.align	2
  21              		.global	LL_EXTI_DeInit
  22              		.code	16
  23              		.thumb_func
  25              	LL_EXTI_DeInit:
  26              	.LFB50:
  27              		.file 1 "Drivers/STM32F0xx_HAL_Driver/Src/stm32f0xx_ll_exti.c"
   1:Drivers/STM32F0xx_HAL_Driver/Src/stm32f0xx_ll_exti.c **** /**
   2:Drivers/STM32F0xx_HAL_Driver/Src/stm32f0xx_ll_exti.c ****   ******************************************************************************
   3:Drivers/STM32F0xx_HAL_Driver/Src/stm32f0xx_ll_exti.c ****   * @file    stm32f0xx_ll_exti.c
   4:Drivers/STM32F0xx_HAL_Driver/Src/stm32f0xx_ll_exti.c ****   * @author  MCD Application Team
   5:Drivers/STM32F0xx_HAL_Driver/Src/stm32f0xx_ll_exti.c ****   * @brief   EXTI LL module driver.
   6:Drivers/STM32F0xx_HAL_Driver/Src/stm32f0xx_ll_exti.c ****   ******************************************************************************
   7:Drivers/STM32F0xx_HAL_Driver/Src/stm32f0xx_ll_exti.c ****   * @attention
   8:Drivers/STM32F0xx_HAL_Driver/Src/stm32f0xx_ll_exti.c ****   *
   9:Drivers/STM32F0xx_HAL_Driver/Src/stm32f0xx_ll_exti.c ****   * <h2><center>&copy; COPYRIGHT(c) 2016 STMicroelectronics</center></h2>
  10:Drivers/STM32F0xx_HAL_Driver/Src/stm32f0xx_ll_exti.c ****   *
  11:Drivers/STM32F0xx_HAL_Driver/Src/stm32f0xx_ll_exti.c ****   * Redistribution and use in source and binary forms, with or without modification,
  12:Drivers/STM32F0xx_HAL_Driver/Src/stm32f0xx_ll_exti.c ****   * are permitted provided that the following conditions are met:
  13:Drivers/STM32F0xx_HAL_Driver/Src/stm32f0xx_ll_exti.c ****   *   1. Redistributions of source code must retain the above copyright notice,
  14:Drivers/STM32F0xx_HAL_Driver/Src/stm32f0xx_ll_exti.c ****   *      this list of conditions and the following disclaimer.
  15:Drivers/STM32F0xx_HAL_Driver/Src/stm32f0xx_ll_exti.c ****   *   2. Redistributions in binary form must reproduce the above copyright notice,
  16:Drivers/STM32F0xx_HAL_Driver/Src/stm32f0xx_ll_exti.c ****   *      this list of conditions and the following disclaimer in the documentation
  17:Drivers/STM32F0xx_HAL_Driver/Src/stm32f0xx_ll_exti.c ****   *      and/or other materials provided with the distribution.
  18:Drivers/STM32F0xx_HAL_Driver/Src/stm32f0xx_ll_exti.c ****   *   3. Neither the name of STMicroelectronics nor the names of its contributors
  19:Drivers/STM32F0xx_HAL_Driver/Src/stm32f0xx_ll_exti.c ****   *      may be used to endorse or promote products derived from this software
  20:Drivers/STM32F0xx_HAL_Driver/Src/stm32f0xx_ll_exti.c ****   *      without specific prior written permission.
  21:Drivers/STM32F0xx_HAL_Driver/Src/stm32f0xx_ll_exti.c ****   *
  22:Drivers/STM32F0xx_HAL_Driver/Src/stm32f0xx_ll_exti.c ****   * THIS SOFTWARE IS PROVIDED BY THE COPYRIGHT HOLDERS AND CONTRIBUTORS "AS IS"
  23:Drivers/STM32F0xx_HAL_Driver/Src/stm32f0xx_ll_exti.c ****   * AND ANY EXPRESS OR IMPLIED WARRANTIES, INCLUDING, BUT NOT LIMITED TO, THE
  24:Drivers/STM32F0xx_HAL_Driver/Src/stm32f0xx_ll_exti.c ****   * IMPLIED WARRANTIES OF MERCHANTABILITY AND FITNESS FOR A PARTICULAR PURPOSE ARE
  25:Drivers/STM32F0xx_HAL_Driver/Src/stm32f0xx_ll_exti.c ****   * DISCLAIMED. IN NO EVENT SHALL THE COPYRIGHT HOLDER OR CONTRIBUTORS BE LIABLE
  26:Drivers/STM32F0xx_HAL_Driver/Src/stm32f0xx_ll_exti.c ****   * FOR ANY DIRECT, INDIRECT, INCIDENTAL, SPECIAL, EXEMPLARY, OR CONSEQUENTIAL
  27:Drivers/STM32F0xx_HAL_Driver/Src/stm32f0xx_ll_exti.c ****   * DAMAGES (INCLUDING, BUT NOT LIMITED TO, PROCUREMENT OF SUBSTITUTE GOODS OR
  28:Drivers/STM32F0xx_HAL_Driver/Src/stm32f0xx_ll_exti.c ****   * SERVICES; LOSS OF USE, DATA, OR PROFITS; OR BUSINESS INTERRUPTION) HOWEVER
  29:Drivers/STM32F0xx_HAL_Driver/Src/stm32f0xx_ll_exti.c ****   * CAUSED AND ON ANY THEORY OF LIABILITY, WHETHER IN CONTRACT, STRICT LIABILITY,
  30:Drivers/STM32F0xx_HAL_Driver/Src/stm32f0xx_ll_exti.c ****   * OR TORT (INCLUDING NEGLIGENCE OR OTHERWISE) ARISING IN ANY WAY OUT OF THE USE
  31:Drivers/STM32F0xx_HAL_Driver/Src/stm32f0xx_ll_exti.c ****   * OF THIS SOFTWARE, EVEN IF ADVISED OF THE POSSIBILITY OF SUCH DAMAGE.
ARM GAS  C:\Users\strag\AppData\Local\Temp\cc8irbMQ.s 			page 2


  32:Drivers/STM32F0xx_HAL_Driver/Src/stm32f0xx_ll_exti.c ****   *
  33:Drivers/STM32F0xx_HAL_Driver/Src/stm32f0xx_ll_exti.c ****   ******************************************************************************
  34:Drivers/STM32F0xx_HAL_Driver/Src/stm32f0xx_ll_exti.c ****   */
  35:Drivers/STM32F0xx_HAL_Driver/Src/stm32f0xx_ll_exti.c **** #if defined(USE_FULL_LL_DRIVER)
  36:Drivers/STM32F0xx_HAL_Driver/Src/stm32f0xx_ll_exti.c **** 
  37:Drivers/STM32F0xx_HAL_Driver/Src/stm32f0xx_ll_exti.c **** /* Includes ------------------------------------------------------------------*/
  38:Drivers/STM32F0xx_HAL_Driver/Src/stm32f0xx_ll_exti.c **** #include "stm32f0xx_ll_exti.h"
  39:Drivers/STM32F0xx_HAL_Driver/Src/stm32f0xx_ll_exti.c **** #ifdef  USE_FULL_ASSERT
  40:Drivers/STM32F0xx_HAL_Driver/Src/stm32f0xx_ll_exti.c **** #include "stm32_assert.h"
  41:Drivers/STM32F0xx_HAL_Driver/Src/stm32f0xx_ll_exti.c **** #else
  42:Drivers/STM32F0xx_HAL_Driver/Src/stm32f0xx_ll_exti.c **** #define assert_param(expr) ((void)0U)
  43:Drivers/STM32F0xx_HAL_Driver/Src/stm32f0xx_ll_exti.c **** #endif
  44:Drivers/STM32F0xx_HAL_Driver/Src/stm32f0xx_ll_exti.c **** 
  45:Drivers/STM32F0xx_HAL_Driver/Src/stm32f0xx_ll_exti.c **** /** @addtogroup STM32F0xx_LL_Driver
  46:Drivers/STM32F0xx_HAL_Driver/Src/stm32f0xx_ll_exti.c ****   * @{
  47:Drivers/STM32F0xx_HAL_Driver/Src/stm32f0xx_ll_exti.c ****   */
  48:Drivers/STM32F0xx_HAL_Driver/Src/stm32f0xx_ll_exti.c **** 
  49:Drivers/STM32F0xx_HAL_Driver/Src/stm32f0xx_ll_exti.c **** #if defined (EXTI)
  50:Drivers/STM32F0xx_HAL_Driver/Src/stm32f0xx_ll_exti.c **** 
  51:Drivers/STM32F0xx_HAL_Driver/Src/stm32f0xx_ll_exti.c **** /** @defgroup EXTI_LL EXTI
  52:Drivers/STM32F0xx_HAL_Driver/Src/stm32f0xx_ll_exti.c ****   * @{
  53:Drivers/STM32F0xx_HAL_Driver/Src/stm32f0xx_ll_exti.c ****   */
  54:Drivers/STM32F0xx_HAL_Driver/Src/stm32f0xx_ll_exti.c **** 
  55:Drivers/STM32F0xx_HAL_Driver/Src/stm32f0xx_ll_exti.c **** /* Private types -------------------------------------------------------------*/
  56:Drivers/STM32F0xx_HAL_Driver/Src/stm32f0xx_ll_exti.c **** /* Private variables ---------------------------------------------------------*/
  57:Drivers/STM32F0xx_HAL_Driver/Src/stm32f0xx_ll_exti.c **** /* Private constants ---------------------------------------------------------*/
  58:Drivers/STM32F0xx_HAL_Driver/Src/stm32f0xx_ll_exti.c **** /* Private macros ------------------------------------------------------------*/
  59:Drivers/STM32F0xx_HAL_Driver/Src/stm32f0xx_ll_exti.c **** /** @addtogroup EXTI_LL_Private_Macros
  60:Drivers/STM32F0xx_HAL_Driver/Src/stm32f0xx_ll_exti.c ****   * @{
  61:Drivers/STM32F0xx_HAL_Driver/Src/stm32f0xx_ll_exti.c ****   */
  62:Drivers/STM32F0xx_HAL_Driver/Src/stm32f0xx_ll_exti.c **** 
  63:Drivers/STM32F0xx_HAL_Driver/Src/stm32f0xx_ll_exti.c **** #define IS_LL_EXTI_LINE_0_31(__VALUE__)              (((__VALUE__) & ~LL_EXTI_LINE_ALL_0_31) == 0x0
  64:Drivers/STM32F0xx_HAL_Driver/Src/stm32f0xx_ll_exti.c **** 
  65:Drivers/STM32F0xx_HAL_Driver/Src/stm32f0xx_ll_exti.c **** #define IS_LL_EXTI_MODE(__VALUE__)                   (((__VALUE__) == LL_EXTI_MODE_IT)            \
  66:Drivers/STM32F0xx_HAL_Driver/Src/stm32f0xx_ll_exti.c ****                                                    || ((__VALUE__) == LL_EXTI_MODE_EVENT)         \
  67:Drivers/STM32F0xx_HAL_Driver/Src/stm32f0xx_ll_exti.c ****                                                    || ((__VALUE__) == LL_EXTI_MODE_IT_EVENT))
  68:Drivers/STM32F0xx_HAL_Driver/Src/stm32f0xx_ll_exti.c **** 
  69:Drivers/STM32F0xx_HAL_Driver/Src/stm32f0xx_ll_exti.c **** 
  70:Drivers/STM32F0xx_HAL_Driver/Src/stm32f0xx_ll_exti.c **** #define IS_LL_EXTI_TRIGGER(__VALUE__)                (((__VALUE__) == LL_EXTI_TRIGGER_NONE)       \
  71:Drivers/STM32F0xx_HAL_Driver/Src/stm32f0xx_ll_exti.c ****                                                    || ((__VALUE__) == LL_EXTI_TRIGGER_RISING)     \
  72:Drivers/STM32F0xx_HAL_Driver/Src/stm32f0xx_ll_exti.c ****                                                    || ((__VALUE__) == LL_EXTI_TRIGGER_FALLING)    \
  73:Drivers/STM32F0xx_HAL_Driver/Src/stm32f0xx_ll_exti.c ****                                                    || ((__VALUE__) == LL_EXTI_TRIGGER_RISING_FALLIN
  74:Drivers/STM32F0xx_HAL_Driver/Src/stm32f0xx_ll_exti.c **** 
  75:Drivers/STM32F0xx_HAL_Driver/Src/stm32f0xx_ll_exti.c **** /**
  76:Drivers/STM32F0xx_HAL_Driver/Src/stm32f0xx_ll_exti.c ****   * @}
  77:Drivers/STM32F0xx_HAL_Driver/Src/stm32f0xx_ll_exti.c ****   */
  78:Drivers/STM32F0xx_HAL_Driver/Src/stm32f0xx_ll_exti.c **** 
  79:Drivers/STM32F0xx_HAL_Driver/Src/stm32f0xx_ll_exti.c **** /* Private function prototypes -----------------------------------------------*/
  80:Drivers/STM32F0xx_HAL_Driver/Src/stm32f0xx_ll_exti.c **** 
  81:Drivers/STM32F0xx_HAL_Driver/Src/stm32f0xx_ll_exti.c **** /* Exported functions --------------------------------------------------------*/
  82:Drivers/STM32F0xx_HAL_Driver/Src/stm32f0xx_ll_exti.c **** /** @addtogroup EXTI_LL_Exported_Functions
  83:Drivers/STM32F0xx_HAL_Driver/Src/stm32f0xx_ll_exti.c ****   * @{
  84:Drivers/STM32F0xx_HAL_Driver/Src/stm32f0xx_ll_exti.c ****   */
  85:Drivers/STM32F0xx_HAL_Driver/Src/stm32f0xx_ll_exti.c **** 
  86:Drivers/STM32F0xx_HAL_Driver/Src/stm32f0xx_ll_exti.c **** /** @addtogroup EXTI_LL_EF_Init
  87:Drivers/STM32F0xx_HAL_Driver/Src/stm32f0xx_ll_exti.c ****   * @{
  88:Drivers/STM32F0xx_HAL_Driver/Src/stm32f0xx_ll_exti.c ****   */
ARM GAS  C:\Users\strag\AppData\Local\Temp\cc8irbMQ.s 			page 3


  89:Drivers/STM32F0xx_HAL_Driver/Src/stm32f0xx_ll_exti.c **** 
  90:Drivers/STM32F0xx_HAL_Driver/Src/stm32f0xx_ll_exti.c **** /**
  91:Drivers/STM32F0xx_HAL_Driver/Src/stm32f0xx_ll_exti.c ****   * @brief  De-initialize the EXTI registers to their default reset values.
  92:Drivers/STM32F0xx_HAL_Driver/Src/stm32f0xx_ll_exti.c ****   * @retval An ErrorStatus enumeration value:
  93:Drivers/STM32F0xx_HAL_Driver/Src/stm32f0xx_ll_exti.c ****   *          - SUCCESS: EXTI registers are de-initialized
  94:Drivers/STM32F0xx_HAL_Driver/Src/stm32f0xx_ll_exti.c ****   *          - ERROR: not applicable
  95:Drivers/STM32F0xx_HAL_Driver/Src/stm32f0xx_ll_exti.c ****   */
  96:Drivers/STM32F0xx_HAL_Driver/Src/stm32f0xx_ll_exti.c **** uint32_t LL_EXTI_DeInit(void)
  97:Drivers/STM32F0xx_HAL_Driver/Src/stm32f0xx_ll_exti.c **** {
  28              		.loc 1 97 0
  29              		.cfi_startproc
  30              		@ args = 0, pretend = 0, frame = 0
  31              		@ frame_needed = 0, uses_anonymous_args = 0
  32              		@ link register save eliminated.
  98:Drivers/STM32F0xx_HAL_Driver/Src/stm32f0xx_ll_exti.c ****   /* Interrupt mask register set to default reset values */
  99:Drivers/STM32F0xx_HAL_Driver/Src/stm32f0xx_ll_exti.c **** #if defined(STM32F030x6) || defined(STM32F031x6) ||defined(STM32F038xx)
 100:Drivers/STM32F0xx_HAL_Driver/Src/stm32f0xx_ll_exti.c ****   LL_EXTI_WriteReg(IMR,   0x0FF40000U);
 101:Drivers/STM32F0xx_HAL_Driver/Src/stm32f0xx_ll_exti.c **** #elif defined(STM32F070x6) || defined(STM32F042x6) || defined(STM32F048xx)
 102:Drivers/STM32F0xx_HAL_Driver/Src/stm32f0xx_ll_exti.c ****   LL_EXTI_WriteReg(IMR,   0x7FF40000U);
  33              		.loc 1 102 0
  34 0000 054B     		ldr	r3, .L2
  35 0002 064A     		ldr	r2, .L2+4
  36 0004 1A60     		str	r2, [r3]
 103:Drivers/STM32F0xx_HAL_Driver/Src/stm32f0xx_ll_exti.c **** #elif defined(STM32F030x8) || defined(STM32F051x8) || defined(STM32F058xx)
 104:Drivers/STM32F0xx_HAL_Driver/Src/stm32f0xx_ll_exti.c ****   LL_EXTI_WriteReg(IMR,   0x0F940000U);
 105:Drivers/STM32F0xx_HAL_Driver/Src/stm32f0xx_ll_exti.c **** #else
 106:Drivers/STM32F0xx_HAL_Driver/Src/stm32f0xx_ll_exti.c ****   LL_EXTI_WriteReg(IMR,   0x7F840000U);
 107:Drivers/STM32F0xx_HAL_Driver/Src/stm32f0xx_ll_exti.c **** #endif
 108:Drivers/STM32F0xx_HAL_Driver/Src/stm32f0xx_ll_exti.c ****   /* Event mask register set to default reset values */
 109:Drivers/STM32F0xx_HAL_Driver/Src/stm32f0xx_ll_exti.c ****   LL_EXTI_WriteReg(EMR,   0x00000000U);
  37              		.loc 1 109 0
  38 0006 0022     		movs	r2, #0
  39 0008 5A60     		str	r2, [r3, #4]
 110:Drivers/STM32F0xx_HAL_Driver/Src/stm32f0xx_ll_exti.c ****   /* Rising Trigger selection register set to default reset values */
 111:Drivers/STM32F0xx_HAL_Driver/Src/stm32f0xx_ll_exti.c ****   LL_EXTI_WriteReg(RTSR,  0x00000000U);
  40              		.loc 1 111 0
  41 000a 9A60     		str	r2, [r3, #8]
 112:Drivers/STM32F0xx_HAL_Driver/Src/stm32f0xx_ll_exti.c ****   /* Falling Trigger selection register set to default reset values */
 113:Drivers/STM32F0xx_HAL_Driver/Src/stm32f0xx_ll_exti.c ****   LL_EXTI_WriteReg(FTSR,  0x00000000U);
  42              		.loc 1 113 0
  43 000c DA60     		str	r2, [r3, #12]
 114:Drivers/STM32F0xx_HAL_Driver/Src/stm32f0xx_ll_exti.c ****   /* Software interrupt event register set to default reset values */
 115:Drivers/STM32F0xx_HAL_Driver/Src/stm32f0xx_ll_exti.c ****   LL_EXTI_WriteReg(SWIER, 0x00000000U);
  44              		.loc 1 115 0
  45 000e 1A61     		str	r2, [r3, #16]
 116:Drivers/STM32F0xx_HAL_Driver/Src/stm32f0xx_ll_exti.c ****   /* Pending register clear */
 117:Drivers/STM32F0xx_HAL_Driver/Src/stm32f0xx_ll_exti.c ****   LL_EXTI_WriteReg(PR,    0x007BFFFFU);
  46              		.loc 1 117 0
  47 0010 034A     		ldr	r2, .L2+8
  48 0012 5A61     		str	r2, [r3, #20]
 118:Drivers/STM32F0xx_HAL_Driver/Src/stm32f0xx_ll_exti.c **** 
 119:Drivers/STM32F0xx_HAL_Driver/Src/stm32f0xx_ll_exti.c ****   return SUCCESS;
 120:Drivers/STM32F0xx_HAL_Driver/Src/stm32f0xx_ll_exti.c **** }
  49              		.loc 1 120 0
  50 0014 0120     		movs	r0, #1
  51              		@ sp needed
  52 0016 7047     		bx	lr
ARM GAS  C:\Users\strag\AppData\Local\Temp\cc8irbMQ.s 			page 4


  53              	.L3:
  54              		.align	2
  55              	.L2:
  56 0018 00040140 		.word	1073808384
  57 001c 0000F47F 		.word	2146697216
  58 0020 FFFF7B00 		.word	8126463
  59              		.cfi_endproc
  60              	.LFE50:
  62              		.section	.text.LL_EXTI_Init,"ax",%progbits
  63              		.align	2
  64              		.global	LL_EXTI_Init
  65              		.code	16
  66              		.thumb_func
  68              	LL_EXTI_Init:
  69              	.LFB51:
 121:Drivers/STM32F0xx_HAL_Driver/Src/stm32f0xx_ll_exti.c **** 
 122:Drivers/STM32F0xx_HAL_Driver/Src/stm32f0xx_ll_exti.c **** /**
 123:Drivers/STM32F0xx_HAL_Driver/Src/stm32f0xx_ll_exti.c ****   * @brief  Initialize the EXTI registers according to the specified parameters in EXTI_InitStruct.
 124:Drivers/STM32F0xx_HAL_Driver/Src/stm32f0xx_ll_exti.c ****   * @param  EXTI_InitStruct pointer to a @ref LL_EXTI_InitTypeDef structure.
 125:Drivers/STM32F0xx_HAL_Driver/Src/stm32f0xx_ll_exti.c ****   * @retval An ErrorStatus enumeration value:
 126:Drivers/STM32F0xx_HAL_Driver/Src/stm32f0xx_ll_exti.c ****   *          - SUCCESS: EXTI registers are initialized
 127:Drivers/STM32F0xx_HAL_Driver/Src/stm32f0xx_ll_exti.c ****   *          - ERROR: not applicable
 128:Drivers/STM32F0xx_HAL_Driver/Src/stm32f0xx_ll_exti.c ****   */
 129:Drivers/STM32F0xx_HAL_Driver/Src/stm32f0xx_ll_exti.c **** uint32_t LL_EXTI_Init(LL_EXTI_InitTypeDef *EXTI_InitStruct)
 130:Drivers/STM32F0xx_HAL_Driver/Src/stm32f0xx_ll_exti.c **** {
  70              		.loc 1 130 0
  71              		.cfi_startproc
  72              		@ args = 0, pretend = 0, frame = 0
  73              		@ frame_needed = 0, uses_anonymous_args = 0
  74              	.LVL0:
  75 0000 10B5     		push	{r4, lr}
  76              	.LCFI0:
  77              		.cfi_def_cfa_offset 8
  78              		.cfi_offset 4, -8
  79              		.cfi_offset 14, -4
  80              	.LVL1:
 131:Drivers/STM32F0xx_HAL_Driver/Src/stm32f0xx_ll_exti.c ****   ErrorStatus status = SUCCESS;
 132:Drivers/STM32F0xx_HAL_Driver/Src/stm32f0xx_ll_exti.c ****   /* Check the parameters */
 133:Drivers/STM32F0xx_HAL_Driver/Src/stm32f0xx_ll_exti.c ****   assert_param(IS_LL_EXTI_LINE_0_31(EXTI_InitStruct->Line_0_31));
 134:Drivers/STM32F0xx_HAL_Driver/Src/stm32f0xx_ll_exti.c ****   assert_param(IS_FUNCTIONAL_STATE(EXTI_InitStruct->LineCommand));
 135:Drivers/STM32F0xx_HAL_Driver/Src/stm32f0xx_ll_exti.c ****   assert_param(IS_LL_EXTI_MODE(EXTI_InitStruct->Mode));
 136:Drivers/STM32F0xx_HAL_Driver/Src/stm32f0xx_ll_exti.c **** 
 137:Drivers/STM32F0xx_HAL_Driver/Src/stm32f0xx_ll_exti.c ****   /* ENABLE LineCommand */
 138:Drivers/STM32F0xx_HAL_Driver/Src/stm32f0xx_ll_exti.c ****   if (EXTI_InitStruct->LineCommand != DISABLE)
  81              		.loc 1 138 0
  82 0002 0379     		ldrb	r3, [r0, #4]
  83 0004 002B     		cmp	r3, #0
  84 0006 50D0     		beq	.L5
 139:Drivers/STM32F0xx_HAL_Driver/Src/stm32f0xx_ll_exti.c ****   {
 140:Drivers/STM32F0xx_HAL_Driver/Src/stm32f0xx_ll_exti.c ****     assert_param(IS_LL_EXTI_TRIGGER(EXTI_InitStruct->Trigger));
 141:Drivers/STM32F0xx_HAL_Driver/Src/stm32f0xx_ll_exti.c **** 
 142:Drivers/STM32F0xx_HAL_Driver/Src/stm32f0xx_ll_exti.c ****     /* Configure EXTI Lines in range from 0 to 31 */
 143:Drivers/STM32F0xx_HAL_Driver/Src/stm32f0xx_ll_exti.c ****     if (EXTI_InitStruct->Line_0_31 != LL_EXTI_LINE_NONE)
  85              		.loc 1 143 0
  86 0008 0368     		ldr	r3, [r0]
  87 000a 002B     		cmp	r3, #0
  88 000c 58D0     		beq	.L14
ARM GAS  C:\Users\strag\AppData\Local\Temp\cc8irbMQ.s 			page 5


 144:Drivers/STM32F0xx_HAL_Driver/Src/stm32f0xx_ll_exti.c ****     {
 145:Drivers/STM32F0xx_HAL_Driver/Src/stm32f0xx_ll_exti.c ****       switch (EXTI_InitStruct->Mode)
  89              		.loc 1 145 0
  90 000e 4279     		ldrb	r2, [r0, #5]
  91 0010 012A     		cmp	r2, #1
  92 0012 0ED0     		beq	.L8
  93 0014 002A     		cmp	r2, #0
  94 0016 02D0     		beq	.L9
  95 0018 022A     		cmp	r2, #2
  96 001a 14D0     		beq	.L10
  97 001c 1DE0     		b	.L17
  98              	.L9:
  99              	.LVL2:
 100              	.LBB30:
 101              	.LBB31:
 102              		.file 2 "Drivers/STM32F0xx_HAL_Driver/Inc/stm32f0xx_ll_exti.h"
   1:Drivers/STM32F0xx_HAL_Driver/Inc/stm32f0xx_ll_exti.h **** /**
   2:Drivers/STM32F0xx_HAL_Driver/Inc/stm32f0xx_ll_exti.h ****   ******************************************************************************
   3:Drivers/STM32F0xx_HAL_Driver/Inc/stm32f0xx_ll_exti.h ****   * @file    stm32f0xx_ll_exti.h
   4:Drivers/STM32F0xx_HAL_Driver/Inc/stm32f0xx_ll_exti.h ****   * @author  MCD Application Team
   5:Drivers/STM32F0xx_HAL_Driver/Inc/stm32f0xx_ll_exti.h ****   * @brief   Header file of EXTI LL module.
   6:Drivers/STM32F0xx_HAL_Driver/Inc/stm32f0xx_ll_exti.h ****   ******************************************************************************
   7:Drivers/STM32F0xx_HAL_Driver/Inc/stm32f0xx_ll_exti.h ****   * @attention
   8:Drivers/STM32F0xx_HAL_Driver/Inc/stm32f0xx_ll_exti.h ****   *
   9:Drivers/STM32F0xx_HAL_Driver/Inc/stm32f0xx_ll_exti.h ****   * <h2><center>&copy; COPYRIGHT(c) 2016 STMicroelectronics</center></h2>
  10:Drivers/STM32F0xx_HAL_Driver/Inc/stm32f0xx_ll_exti.h ****   *
  11:Drivers/STM32F0xx_HAL_Driver/Inc/stm32f0xx_ll_exti.h ****   * Redistribution and use in source and binary forms, with or without modification,
  12:Drivers/STM32F0xx_HAL_Driver/Inc/stm32f0xx_ll_exti.h ****   * are permitted provided that the following conditions are met:
  13:Drivers/STM32F0xx_HAL_Driver/Inc/stm32f0xx_ll_exti.h ****   *   1. Redistributions of source code must retain the above copyright notice,
  14:Drivers/STM32F0xx_HAL_Driver/Inc/stm32f0xx_ll_exti.h ****   *      this list of conditions and the following disclaimer.
  15:Drivers/STM32F0xx_HAL_Driver/Inc/stm32f0xx_ll_exti.h ****   *   2. Redistributions in binary form must reproduce the above copyright notice,
  16:Drivers/STM32F0xx_HAL_Driver/Inc/stm32f0xx_ll_exti.h ****   *      this list of conditions and the following disclaimer in the documentation
  17:Drivers/STM32F0xx_HAL_Driver/Inc/stm32f0xx_ll_exti.h ****   *      and/or other materials provided with the distribution.
  18:Drivers/STM32F0xx_HAL_Driver/Inc/stm32f0xx_ll_exti.h ****   *   3. Neither the name of STMicroelectronics nor the names of its contributors
  19:Drivers/STM32F0xx_HAL_Driver/Inc/stm32f0xx_ll_exti.h ****   *      may be used to endorse or promote products derived from this software
  20:Drivers/STM32F0xx_HAL_Driver/Inc/stm32f0xx_ll_exti.h ****   *      without specific prior written permission.
  21:Drivers/STM32F0xx_HAL_Driver/Inc/stm32f0xx_ll_exti.h ****   *
  22:Drivers/STM32F0xx_HAL_Driver/Inc/stm32f0xx_ll_exti.h ****   * THIS SOFTWARE IS PROVIDED BY THE COPYRIGHT HOLDERS AND CONTRIBUTORS "AS IS"
  23:Drivers/STM32F0xx_HAL_Driver/Inc/stm32f0xx_ll_exti.h ****   * AND ANY EXPRESS OR IMPLIED WARRANTIES, INCLUDING, BUT NOT LIMITED TO, THE
  24:Drivers/STM32F0xx_HAL_Driver/Inc/stm32f0xx_ll_exti.h ****   * IMPLIED WARRANTIES OF MERCHANTABILITY AND FITNESS FOR A PARTICULAR PURPOSE ARE
  25:Drivers/STM32F0xx_HAL_Driver/Inc/stm32f0xx_ll_exti.h ****   * DISCLAIMED. IN NO EVENT SHALL THE COPYRIGHT HOLDER OR CONTRIBUTORS BE LIABLE
  26:Drivers/STM32F0xx_HAL_Driver/Inc/stm32f0xx_ll_exti.h ****   * FOR ANY DIRECT, INDIRECT, INCIDENTAL, SPECIAL, EXEMPLARY, OR CONSEQUENTIAL
  27:Drivers/STM32F0xx_HAL_Driver/Inc/stm32f0xx_ll_exti.h ****   * DAMAGES (INCLUDING, BUT NOT LIMITED TO, PROCUREMENT OF SUBSTITUTE GOODS OR
  28:Drivers/STM32F0xx_HAL_Driver/Inc/stm32f0xx_ll_exti.h ****   * SERVICES; LOSS OF USE, DATA, OR PROFITS; OR BUSINESS INTERRUPTION) HOWEVER
  29:Drivers/STM32F0xx_HAL_Driver/Inc/stm32f0xx_ll_exti.h ****   * CAUSED AND ON ANY THEORY OF LIABILITY, WHETHER IN CONTRACT, STRICT LIABILITY,
  30:Drivers/STM32F0xx_HAL_Driver/Inc/stm32f0xx_ll_exti.h ****   * OR TORT (INCLUDING NEGLIGENCE OR OTHERWISE) ARISING IN ANY WAY OUT OF THE USE
  31:Drivers/STM32F0xx_HAL_Driver/Inc/stm32f0xx_ll_exti.h ****   * OF THIS SOFTWARE, EVEN IF ADVISED OF THE POSSIBILITY OF SUCH DAMAGE.
  32:Drivers/STM32F0xx_HAL_Driver/Inc/stm32f0xx_ll_exti.h ****   *
  33:Drivers/STM32F0xx_HAL_Driver/Inc/stm32f0xx_ll_exti.h ****   ******************************************************************************
  34:Drivers/STM32F0xx_HAL_Driver/Inc/stm32f0xx_ll_exti.h ****   */
  35:Drivers/STM32F0xx_HAL_Driver/Inc/stm32f0xx_ll_exti.h **** 
  36:Drivers/STM32F0xx_HAL_Driver/Inc/stm32f0xx_ll_exti.h **** /* Define to prevent recursive inclusion -------------------------------------*/
  37:Drivers/STM32F0xx_HAL_Driver/Inc/stm32f0xx_ll_exti.h **** #ifndef __STM32F0xx_LL_EXTI_H
  38:Drivers/STM32F0xx_HAL_Driver/Inc/stm32f0xx_ll_exti.h **** #define __STM32F0xx_LL_EXTI_H
  39:Drivers/STM32F0xx_HAL_Driver/Inc/stm32f0xx_ll_exti.h **** 
  40:Drivers/STM32F0xx_HAL_Driver/Inc/stm32f0xx_ll_exti.h **** #ifdef __cplusplus
  41:Drivers/STM32F0xx_HAL_Driver/Inc/stm32f0xx_ll_exti.h **** extern "C" {
ARM GAS  C:\Users\strag\AppData\Local\Temp\cc8irbMQ.s 			page 6


  42:Drivers/STM32F0xx_HAL_Driver/Inc/stm32f0xx_ll_exti.h **** #endif
  43:Drivers/STM32F0xx_HAL_Driver/Inc/stm32f0xx_ll_exti.h **** 
  44:Drivers/STM32F0xx_HAL_Driver/Inc/stm32f0xx_ll_exti.h **** /* Includes ------------------------------------------------------------------*/
  45:Drivers/STM32F0xx_HAL_Driver/Inc/stm32f0xx_ll_exti.h **** #include "stm32f0xx.h"
  46:Drivers/STM32F0xx_HAL_Driver/Inc/stm32f0xx_ll_exti.h **** 
  47:Drivers/STM32F0xx_HAL_Driver/Inc/stm32f0xx_ll_exti.h **** /** @addtogroup STM32F0xx_LL_Driver
  48:Drivers/STM32F0xx_HAL_Driver/Inc/stm32f0xx_ll_exti.h ****   * @{
  49:Drivers/STM32F0xx_HAL_Driver/Inc/stm32f0xx_ll_exti.h ****   */
  50:Drivers/STM32F0xx_HAL_Driver/Inc/stm32f0xx_ll_exti.h **** 
  51:Drivers/STM32F0xx_HAL_Driver/Inc/stm32f0xx_ll_exti.h **** #if defined (EXTI)
  52:Drivers/STM32F0xx_HAL_Driver/Inc/stm32f0xx_ll_exti.h **** 
  53:Drivers/STM32F0xx_HAL_Driver/Inc/stm32f0xx_ll_exti.h **** /** @defgroup EXTI_LL EXTI
  54:Drivers/STM32F0xx_HAL_Driver/Inc/stm32f0xx_ll_exti.h ****   * @{
  55:Drivers/STM32F0xx_HAL_Driver/Inc/stm32f0xx_ll_exti.h ****   */
  56:Drivers/STM32F0xx_HAL_Driver/Inc/stm32f0xx_ll_exti.h **** 
  57:Drivers/STM32F0xx_HAL_Driver/Inc/stm32f0xx_ll_exti.h **** /* Private types -------------------------------------------------------------*/
  58:Drivers/STM32F0xx_HAL_Driver/Inc/stm32f0xx_ll_exti.h **** /* Private variables ---------------------------------------------------------*/
  59:Drivers/STM32F0xx_HAL_Driver/Inc/stm32f0xx_ll_exti.h **** /* Private constants ---------------------------------------------------------*/
  60:Drivers/STM32F0xx_HAL_Driver/Inc/stm32f0xx_ll_exti.h **** /* Private Macros ------------------------------------------------------------*/
  61:Drivers/STM32F0xx_HAL_Driver/Inc/stm32f0xx_ll_exti.h **** #if defined(USE_FULL_LL_DRIVER)
  62:Drivers/STM32F0xx_HAL_Driver/Inc/stm32f0xx_ll_exti.h **** /** @defgroup EXTI_LL_Private_Macros EXTI Private Macros
  63:Drivers/STM32F0xx_HAL_Driver/Inc/stm32f0xx_ll_exti.h ****   * @{
  64:Drivers/STM32F0xx_HAL_Driver/Inc/stm32f0xx_ll_exti.h ****   */
  65:Drivers/STM32F0xx_HAL_Driver/Inc/stm32f0xx_ll_exti.h **** /**
  66:Drivers/STM32F0xx_HAL_Driver/Inc/stm32f0xx_ll_exti.h ****   * @}
  67:Drivers/STM32F0xx_HAL_Driver/Inc/stm32f0xx_ll_exti.h ****   */
  68:Drivers/STM32F0xx_HAL_Driver/Inc/stm32f0xx_ll_exti.h **** #endif /*USE_FULL_LL_DRIVER*/
  69:Drivers/STM32F0xx_HAL_Driver/Inc/stm32f0xx_ll_exti.h **** /* Exported types ------------------------------------------------------------*/
  70:Drivers/STM32F0xx_HAL_Driver/Inc/stm32f0xx_ll_exti.h **** #if defined(USE_FULL_LL_DRIVER)
  71:Drivers/STM32F0xx_HAL_Driver/Inc/stm32f0xx_ll_exti.h **** /** @defgroup EXTI_LL_ES_INIT EXTI Exported Init structure
  72:Drivers/STM32F0xx_HAL_Driver/Inc/stm32f0xx_ll_exti.h ****   * @{
  73:Drivers/STM32F0xx_HAL_Driver/Inc/stm32f0xx_ll_exti.h ****   */
  74:Drivers/STM32F0xx_HAL_Driver/Inc/stm32f0xx_ll_exti.h **** typedef struct
  75:Drivers/STM32F0xx_HAL_Driver/Inc/stm32f0xx_ll_exti.h **** {
  76:Drivers/STM32F0xx_HAL_Driver/Inc/stm32f0xx_ll_exti.h **** 
  77:Drivers/STM32F0xx_HAL_Driver/Inc/stm32f0xx_ll_exti.h ****   uint32_t Line_0_31;           /*!< Specifies the EXTI lines to be enabled or disabled for Lines i
  78:Drivers/STM32F0xx_HAL_Driver/Inc/stm32f0xx_ll_exti.h ****                                      This parameter can be any combination of @ref EXTI_LL_EC_LINE 
  79:Drivers/STM32F0xx_HAL_Driver/Inc/stm32f0xx_ll_exti.h **** 
  80:Drivers/STM32F0xx_HAL_Driver/Inc/stm32f0xx_ll_exti.h ****   FunctionalState LineCommand;  /*!< Specifies the new state of the selected EXTI lines.
  81:Drivers/STM32F0xx_HAL_Driver/Inc/stm32f0xx_ll_exti.h ****                                      This parameter can be set either to ENABLE or DISABLE */
  82:Drivers/STM32F0xx_HAL_Driver/Inc/stm32f0xx_ll_exti.h **** 
  83:Drivers/STM32F0xx_HAL_Driver/Inc/stm32f0xx_ll_exti.h ****   uint8_t Mode;                 /*!< Specifies the mode for the EXTI lines.
  84:Drivers/STM32F0xx_HAL_Driver/Inc/stm32f0xx_ll_exti.h ****                                      This parameter can be a value of @ref EXTI_LL_EC_MODE. */
  85:Drivers/STM32F0xx_HAL_Driver/Inc/stm32f0xx_ll_exti.h **** 
  86:Drivers/STM32F0xx_HAL_Driver/Inc/stm32f0xx_ll_exti.h ****   uint8_t Trigger;              /*!< Specifies the trigger signal active edge for the EXTI lines.
  87:Drivers/STM32F0xx_HAL_Driver/Inc/stm32f0xx_ll_exti.h ****                                      This parameter can be a value of @ref EXTI_LL_EC_TRIGGER. */
  88:Drivers/STM32F0xx_HAL_Driver/Inc/stm32f0xx_ll_exti.h **** } LL_EXTI_InitTypeDef;
  89:Drivers/STM32F0xx_HAL_Driver/Inc/stm32f0xx_ll_exti.h **** 
  90:Drivers/STM32F0xx_HAL_Driver/Inc/stm32f0xx_ll_exti.h **** /**
  91:Drivers/STM32F0xx_HAL_Driver/Inc/stm32f0xx_ll_exti.h ****   * @}
  92:Drivers/STM32F0xx_HAL_Driver/Inc/stm32f0xx_ll_exti.h ****   */
  93:Drivers/STM32F0xx_HAL_Driver/Inc/stm32f0xx_ll_exti.h **** #endif /*USE_FULL_LL_DRIVER*/
  94:Drivers/STM32F0xx_HAL_Driver/Inc/stm32f0xx_ll_exti.h **** 
  95:Drivers/STM32F0xx_HAL_Driver/Inc/stm32f0xx_ll_exti.h **** /* Exported constants --------------------------------------------------------*/
  96:Drivers/STM32F0xx_HAL_Driver/Inc/stm32f0xx_ll_exti.h **** /** @defgroup EXTI_LL_Exported_Constants EXTI Exported Constants
  97:Drivers/STM32F0xx_HAL_Driver/Inc/stm32f0xx_ll_exti.h ****   * @{
  98:Drivers/STM32F0xx_HAL_Driver/Inc/stm32f0xx_ll_exti.h ****   */
ARM GAS  C:\Users\strag\AppData\Local\Temp\cc8irbMQ.s 			page 7


  99:Drivers/STM32F0xx_HAL_Driver/Inc/stm32f0xx_ll_exti.h **** 
 100:Drivers/STM32F0xx_HAL_Driver/Inc/stm32f0xx_ll_exti.h **** /** @defgroup EXTI_LL_EC_LINE LINE
 101:Drivers/STM32F0xx_HAL_Driver/Inc/stm32f0xx_ll_exti.h ****   * @{
 102:Drivers/STM32F0xx_HAL_Driver/Inc/stm32f0xx_ll_exti.h ****   */
 103:Drivers/STM32F0xx_HAL_Driver/Inc/stm32f0xx_ll_exti.h **** #define LL_EXTI_LINE_0                 EXTI_IMR_IM0           /*!< Extended line 0 */
 104:Drivers/STM32F0xx_HAL_Driver/Inc/stm32f0xx_ll_exti.h **** #define LL_EXTI_LINE_1                 EXTI_IMR_IM1           /*!< Extended line 1 */
 105:Drivers/STM32F0xx_HAL_Driver/Inc/stm32f0xx_ll_exti.h **** #define LL_EXTI_LINE_2                 EXTI_IMR_IM2           /*!< Extended line 2 */
 106:Drivers/STM32F0xx_HAL_Driver/Inc/stm32f0xx_ll_exti.h **** #define LL_EXTI_LINE_3                 EXTI_IMR_IM3           /*!< Extended line 3 */
 107:Drivers/STM32F0xx_HAL_Driver/Inc/stm32f0xx_ll_exti.h **** #define LL_EXTI_LINE_4                 EXTI_IMR_IM4           /*!< Extended line 4 */
 108:Drivers/STM32F0xx_HAL_Driver/Inc/stm32f0xx_ll_exti.h **** #define LL_EXTI_LINE_5                 EXTI_IMR_IM5           /*!< Extended line 5 */
 109:Drivers/STM32F0xx_HAL_Driver/Inc/stm32f0xx_ll_exti.h **** #define LL_EXTI_LINE_6                 EXTI_IMR_IM6           /*!< Extended line 6 */
 110:Drivers/STM32F0xx_HAL_Driver/Inc/stm32f0xx_ll_exti.h **** #define LL_EXTI_LINE_7                 EXTI_IMR_IM7           /*!< Extended line 7 */
 111:Drivers/STM32F0xx_HAL_Driver/Inc/stm32f0xx_ll_exti.h **** #define LL_EXTI_LINE_8                 EXTI_IMR_IM8           /*!< Extended line 8 */
 112:Drivers/STM32F0xx_HAL_Driver/Inc/stm32f0xx_ll_exti.h **** #define LL_EXTI_LINE_9                 EXTI_IMR_IM9           /*!< Extended line 9 */
 113:Drivers/STM32F0xx_HAL_Driver/Inc/stm32f0xx_ll_exti.h **** #define LL_EXTI_LINE_10                EXTI_IMR_IM10          /*!< Extended line 10 */
 114:Drivers/STM32F0xx_HAL_Driver/Inc/stm32f0xx_ll_exti.h **** #define LL_EXTI_LINE_11                EXTI_IMR_IM11          /*!< Extended line 11 */
 115:Drivers/STM32F0xx_HAL_Driver/Inc/stm32f0xx_ll_exti.h **** #define LL_EXTI_LINE_12                EXTI_IMR_IM12          /*!< Extended line 12 */
 116:Drivers/STM32F0xx_HAL_Driver/Inc/stm32f0xx_ll_exti.h **** #define LL_EXTI_LINE_13                EXTI_IMR_IM13          /*!< Extended line 13 */
 117:Drivers/STM32F0xx_HAL_Driver/Inc/stm32f0xx_ll_exti.h **** #define LL_EXTI_LINE_14                EXTI_IMR_IM14          /*!< Extended line 14 */
 118:Drivers/STM32F0xx_HAL_Driver/Inc/stm32f0xx_ll_exti.h **** #define LL_EXTI_LINE_15                EXTI_IMR_IM15          /*!< Extended line 15 */
 119:Drivers/STM32F0xx_HAL_Driver/Inc/stm32f0xx_ll_exti.h **** #if defined(EXTI_IMR_IM16)
 120:Drivers/STM32F0xx_HAL_Driver/Inc/stm32f0xx_ll_exti.h **** #define LL_EXTI_LINE_16                EXTI_IMR_IM16          /*!< Extended line 16 */
 121:Drivers/STM32F0xx_HAL_Driver/Inc/stm32f0xx_ll_exti.h **** #endif
 122:Drivers/STM32F0xx_HAL_Driver/Inc/stm32f0xx_ll_exti.h **** #define LL_EXTI_LINE_17                EXTI_IMR_IM17          /*!< Extended line 17 */
 123:Drivers/STM32F0xx_HAL_Driver/Inc/stm32f0xx_ll_exti.h **** #if defined(EXTI_IMR_IM18)
 124:Drivers/STM32F0xx_HAL_Driver/Inc/stm32f0xx_ll_exti.h **** #define LL_EXTI_LINE_18                EXTI_IMR_IM18          /*!< Extended line 18 */
 125:Drivers/STM32F0xx_HAL_Driver/Inc/stm32f0xx_ll_exti.h **** #endif
 126:Drivers/STM32F0xx_HAL_Driver/Inc/stm32f0xx_ll_exti.h **** #define LL_EXTI_LINE_19                EXTI_IMR_IM19          /*!< Extended line 19 */
 127:Drivers/STM32F0xx_HAL_Driver/Inc/stm32f0xx_ll_exti.h **** #if defined(EXTI_IMR_IM20)
 128:Drivers/STM32F0xx_HAL_Driver/Inc/stm32f0xx_ll_exti.h **** #define LL_EXTI_LINE_20                EXTI_IMR_IM20          /*!< Extended line 20 */
 129:Drivers/STM32F0xx_HAL_Driver/Inc/stm32f0xx_ll_exti.h **** #endif
 130:Drivers/STM32F0xx_HAL_Driver/Inc/stm32f0xx_ll_exti.h **** #if defined(EXTI_IMR_IM21)
 131:Drivers/STM32F0xx_HAL_Driver/Inc/stm32f0xx_ll_exti.h **** #define LL_EXTI_LINE_21                EXTI_IMR_IM21          /*!< Extended line 21 */
 132:Drivers/STM32F0xx_HAL_Driver/Inc/stm32f0xx_ll_exti.h **** #endif
 133:Drivers/STM32F0xx_HAL_Driver/Inc/stm32f0xx_ll_exti.h **** #if defined(EXTI_IMR_IM22)
 134:Drivers/STM32F0xx_HAL_Driver/Inc/stm32f0xx_ll_exti.h **** #define LL_EXTI_LINE_22                EXTI_IMR_IM22          /*!< Extended line 22 */
 135:Drivers/STM32F0xx_HAL_Driver/Inc/stm32f0xx_ll_exti.h **** #endif
 136:Drivers/STM32F0xx_HAL_Driver/Inc/stm32f0xx_ll_exti.h **** #define LL_EXTI_LINE_23                EXTI_IMR_IM23          /*!< Extended line 23 */
 137:Drivers/STM32F0xx_HAL_Driver/Inc/stm32f0xx_ll_exti.h **** #if defined(EXTI_IMR_IM24)
 138:Drivers/STM32F0xx_HAL_Driver/Inc/stm32f0xx_ll_exti.h **** #define LL_EXTI_LINE_24                EXTI_IMR_IM24          /*!< Extended line 24 */
 139:Drivers/STM32F0xx_HAL_Driver/Inc/stm32f0xx_ll_exti.h **** #endif
 140:Drivers/STM32F0xx_HAL_Driver/Inc/stm32f0xx_ll_exti.h **** #if defined(EXTI_IMR_IM25)
 141:Drivers/STM32F0xx_HAL_Driver/Inc/stm32f0xx_ll_exti.h **** #define LL_EXTI_LINE_25                EXTI_IMR_IM25          /*!< Extended line 25 */
 142:Drivers/STM32F0xx_HAL_Driver/Inc/stm32f0xx_ll_exti.h **** #endif
 143:Drivers/STM32F0xx_HAL_Driver/Inc/stm32f0xx_ll_exti.h **** #if defined(EXTI_IMR_IM26)
 144:Drivers/STM32F0xx_HAL_Driver/Inc/stm32f0xx_ll_exti.h **** #define LL_EXTI_LINE_26                EXTI_IMR_IM26          /*!< Extended line 26 */
 145:Drivers/STM32F0xx_HAL_Driver/Inc/stm32f0xx_ll_exti.h **** #endif
 146:Drivers/STM32F0xx_HAL_Driver/Inc/stm32f0xx_ll_exti.h **** #if defined(EXTI_IMR_IM27)
 147:Drivers/STM32F0xx_HAL_Driver/Inc/stm32f0xx_ll_exti.h **** #define LL_EXTI_LINE_27                EXTI_IMR_IM27          /*!< Extended line 27 */
 148:Drivers/STM32F0xx_HAL_Driver/Inc/stm32f0xx_ll_exti.h **** #endif
 149:Drivers/STM32F0xx_HAL_Driver/Inc/stm32f0xx_ll_exti.h **** #if defined(EXTI_IMR_IM28)
 150:Drivers/STM32F0xx_HAL_Driver/Inc/stm32f0xx_ll_exti.h **** #define LL_EXTI_LINE_28                EXTI_IMR_IM28          /*!< Extended line 28 */
 151:Drivers/STM32F0xx_HAL_Driver/Inc/stm32f0xx_ll_exti.h **** #endif
 152:Drivers/STM32F0xx_HAL_Driver/Inc/stm32f0xx_ll_exti.h **** #if defined(EXTI_IMR_IM29)
 153:Drivers/STM32F0xx_HAL_Driver/Inc/stm32f0xx_ll_exti.h **** #define LL_EXTI_LINE_29                EXTI_IMR_IM29          /*!< Extended line 29 */
 154:Drivers/STM32F0xx_HAL_Driver/Inc/stm32f0xx_ll_exti.h **** #endif
 155:Drivers/STM32F0xx_HAL_Driver/Inc/stm32f0xx_ll_exti.h **** #if defined(EXTI_IMR_IM30)
ARM GAS  C:\Users\strag\AppData\Local\Temp\cc8irbMQ.s 			page 8


 156:Drivers/STM32F0xx_HAL_Driver/Inc/stm32f0xx_ll_exti.h **** #define LL_EXTI_LINE_30                EXTI_IMR_IM30          /*!< Extended line 30 */
 157:Drivers/STM32F0xx_HAL_Driver/Inc/stm32f0xx_ll_exti.h **** #endif
 158:Drivers/STM32F0xx_HAL_Driver/Inc/stm32f0xx_ll_exti.h **** #if defined(EXTI_IMR_IM31)
 159:Drivers/STM32F0xx_HAL_Driver/Inc/stm32f0xx_ll_exti.h **** #define LL_EXTI_LINE_31                EXTI_IMR_IM31          /*!< Extended line 31 */
 160:Drivers/STM32F0xx_HAL_Driver/Inc/stm32f0xx_ll_exti.h **** #endif
 161:Drivers/STM32F0xx_HAL_Driver/Inc/stm32f0xx_ll_exti.h **** #define LL_EXTI_LINE_ALL_0_31          EXTI_IMR_IM            /*!< All Extended line not reserved*/
 162:Drivers/STM32F0xx_HAL_Driver/Inc/stm32f0xx_ll_exti.h **** 
 163:Drivers/STM32F0xx_HAL_Driver/Inc/stm32f0xx_ll_exti.h **** 
 164:Drivers/STM32F0xx_HAL_Driver/Inc/stm32f0xx_ll_exti.h **** #define LL_EXTI_LINE_ALL               (0xFFFFFFFFU)  /*!< All Extended line */
 165:Drivers/STM32F0xx_HAL_Driver/Inc/stm32f0xx_ll_exti.h **** 
 166:Drivers/STM32F0xx_HAL_Driver/Inc/stm32f0xx_ll_exti.h **** #if defined(USE_FULL_LL_DRIVER)
 167:Drivers/STM32F0xx_HAL_Driver/Inc/stm32f0xx_ll_exti.h **** #define LL_EXTI_LINE_NONE              (0x00000000U)  /*!< None Extended line */
 168:Drivers/STM32F0xx_HAL_Driver/Inc/stm32f0xx_ll_exti.h **** #endif /*USE_FULL_LL_DRIVER*/
 169:Drivers/STM32F0xx_HAL_Driver/Inc/stm32f0xx_ll_exti.h **** 
 170:Drivers/STM32F0xx_HAL_Driver/Inc/stm32f0xx_ll_exti.h **** /**
 171:Drivers/STM32F0xx_HAL_Driver/Inc/stm32f0xx_ll_exti.h ****   * @}
 172:Drivers/STM32F0xx_HAL_Driver/Inc/stm32f0xx_ll_exti.h ****   */
 173:Drivers/STM32F0xx_HAL_Driver/Inc/stm32f0xx_ll_exti.h **** #if defined(USE_FULL_LL_DRIVER)
 174:Drivers/STM32F0xx_HAL_Driver/Inc/stm32f0xx_ll_exti.h **** 
 175:Drivers/STM32F0xx_HAL_Driver/Inc/stm32f0xx_ll_exti.h **** /** @defgroup EXTI_LL_EC_MODE Mode
 176:Drivers/STM32F0xx_HAL_Driver/Inc/stm32f0xx_ll_exti.h ****   * @{
 177:Drivers/STM32F0xx_HAL_Driver/Inc/stm32f0xx_ll_exti.h ****   */
 178:Drivers/STM32F0xx_HAL_Driver/Inc/stm32f0xx_ll_exti.h **** #define LL_EXTI_MODE_IT                 ((uint8_t)0x00U) /*!< Interrupt Mode */
 179:Drivers/STM32F0xx_HAL_Driver/Inc/stm32f0xx_ll_exti.h **** #define LL_EXTI_MODE_EVENT              ((uint8_t)0x01U) /*!< Event Mode */
 180:Drivers/STM32F0xx_HAL_Driver/Inc/stm32f0xx_ll_exti.h **** #define LL_EXTI_MODE_IT_EVENT           ((uint8_t)0x02U) /*!< Interrupt & Event Mode */
 181:Drivers/STM32F0xx_HAL_Driver/Inc/stm32f0xx_ll_exti.h **** /**
 182:Drivers/STM32F0xx_HAL_Driver/Inc/stm32f0xx_ll_exti.h ****   * @}
 183:Drivers/STM32F0xx_HAL_Driver/Inc/stm32f0xx_ll_exti.h ****   */
 184:Drivers/STM32F0xx_HAL_Driver/Inc/stm32f0xx_ll_exti.h **** 
 185:Drivers/STM32F0xx_HAL_Driver/Inc/stm32f0xx_ll_exti.h **** /** @defgroup EXTI_LL_EC_TRIGGER Edge Trigger
 186:Drivers/STM32F0xx_HAL_Driver/Inc/stm32f0xx_ll_exti.h ****   * @{
 187:Drivers/STM32F0xx_HAL_Driver/Inc/stm32f0xx_ll_exti.h ****   */
 188:Drivers/STM32F0xx_HAL_Driver/Inc/stm32f0xx_ll_exti.h **** #define LL_EXTI_TRIGGER_NONE            ((uint8_t)0x00U) /*!< No Trigger Mode */
 189:Drivers/STM32F0xx_HAL_Driver/Inc/stm32f0xx_ll_exti.h **** #define LL_EXTI_TRIGGER_RISING          ((uint8_t)0x01U) /*!< Trigger Rising Mode */
 190:Drivers/STM32F0xx_HAL_Driver/Inc/stm32f0xx_ll_exti.h **** #define LL_EXTI_TRIGGER_FALLING         ((uint8_t)0x02U) /*!< Trigger Falling Mode */
 191:Drivers/STM32F0xx_HAL_Driver/Inc/stm32f0xx_ll_exti.h **** #define LL_EXTI_TRIGGER_RISING_FALLING  ((uint8_t)0x03U) /*!< Trigger Rising & Falling Mode */
 192:Drivers/STM32F0xx_HAL_Driver/Inc/stm32f0xx_ll_exti.h **** 
 193:Drivers/STM32F0xx_HAL_Driver/Inc/stm32f0xx_ll_exti.h **** /**
 194:Drivers/STM32F0xx_HAL_Driver/Inc/stm32f0xx_ll_exti.h ****   * @}
 195:Drivers/STM32F0xx_HAL_Driver/Inc/stm32f0xx_ll_exti.h ****   */
 196:Drivers/STM32F0xx_HAL_Driver/Inc/stm32f0xx_ll_exti.h **** 
 197:Drivers/STM32F0xx_HAL_Driver/Inc/stm32f0xx_ll_exti.h **** 
 198:Drivers/STM32F0xx_HAL_Driver/Inc/stm32f0xx_ll_exti.h **** #endif /*USE_FULL_LL_DRIVER*/
 199:Drivers/STM32F0xx_HAL_Driver/Inc/stm32f0xx_ll_exti.h **** 
 200:Drivers/STM32F0xx_HAL_Driver/Inc/stm32f0xx_ll_exti.h **** 
 201:Drivers/STM32F0xx_HAL_Driver/Inc/stm32f0xx_ll_exti.h **** /**
 202:Drivers/STM32F0xx_HAL_Driver/Inc/stm32f0xx_ll_exti.h ****   * @}
 203:Drivers/STM32F0xx_HAL_Driver/Inc/stm32f0xx_ll_exti.h ****   */
 204:Drivers/STM32F0xx_HAL_Driver/Inc/stm32f0xx_ll_exti.h **** 
 205:Drivers/STM32F0xx_HAL_Driver/Inc/stm32f0xx_ll_exti.h **** /* Exported macro ------------------------------------------------------------*/
 206:Drivers/STM32F0xx_HAL_Driver/Inc/stm32f0xx_ll_exti.h **** /** @defgroup EXTI_LL_Exported_Macros EXTI Exported Macros
 207:Drivers/STM32F0xx_HAL_Driver/Inc/stm32f0xx_ll_exti.h ****   * @{
 208:Drivers/STM32F0xx_HAL_Driver/Inc/stm32f0xx_ll_exti.h ****   */
 209:Drivers/STM32F0xx_HAL_Driver/Inc/stm32f0xx_ll_exti.h **** 
 210:Drivers/STM32F0xx_HAL_Driver/Inc/stm32f0xx_ll_exti.h **** /** @defgroup EXTI_LL_EM_WRITE_READ Common Write and read registers Macros
 211:Drivers/STM32F0xx_HAL_Driver/Inc/stm32f0xx_ll_exti.h ****   * @{
 212:Drivers/STM32F0xx_HAL_Driver/Inc/stm32f0xx_ll_exti.h ****   */
ARM GAS  C:\Users\strag\AppData\Local\Temp\cc8irbMQ.s 			page 9


 213:Drivers/STM32F0xx_HAL_Driver/Inc/stm32f0xx_ll_exti.h **** 
 214:Drivers/STM32F0xx_HAL_Driver/Inc/stm32f0xx_ll_exti.h **** /**
 215:Drivers/STM32F0xx_HAL_Driver/Inc/stm32f0xx_ll_exti.h ****   * @brief  Write a value in EXTI register
 216:Drivers/STM32F0xx_HAL_Driver/Inc/stm32f0xx_ll_exti.h ****   * @param  __REG__ Register to be written
 217:Drivers/STM32F0xx_HAL_Driver/Inc/stm32f0xx_ll_exti.h ****   * @param  __VALUE__ Value to be written in the register
 218:Drivers/STM32F0xx_HAL_Driver/Inc/stm32f0xx_ll_exti.h ****   * @retval None
 219:Drivers/STM32F0xx_HAL_Driver/Inc/stm32f0xx_ll_exti.h ****   */
 220:Drivers/STM32F0xx_HAL_Driver/Inc/stm32f0xx_ll_exti.h **** #define LL_EXTI_WriteReg(__REG__, __VALUE__) WRITE_REG(EXTI->__REG__, (__VALUE__))
 221:Drivers/STM32F0xx_HAL_Driver/Inc/stm32f0xx_ll_exti.h **** 
 222:Drivers/STM32F0xx_HAL_Driver/Inc/stm32f0xx_ll_exti.h **** /**
 223:Drivers/STM32F0xx_HAL_Driver/Inc/stm32f0xx_ll_exti.h ****   * @brief  Read a value in EXTI register
 224:Drivers/STM32F0xx_HAL_Driver/Inc/stm32f0xx_ll_exti.h ****   * @param  __REG__ Register to be read
 225:Drivers/STM32F0xx_HAL_Driver/Inc/stm32f0xx_ll_exti.h ****   * @retval Register value
 226:Drivers/STM32F0xx_HAL_Driver/Inc/stm32f0xx_ll_exti.h ****   */
 227:Drivers/STM32F0xx_HAL_Driver/Inc/stm32f0xx_ll_exti.h **** #define LL_EXTI_ReadReg(__REG__) READ_REG(EXTI->__REG__)
 228:Drivers/STM32F0xx_HAL_Driver/Inc/stm32f0xx_ll_exti.h **** /**
 229:Drivers/STM32F0xx_HAL_Driver/Inc/stm32f0xx_ll_exti.h ****   * @}
 230:Drivers/STM32F0xx_HAL_Driver/Inc/stm32f0xx_ll_exti.h ****   */
 231:Drivers/STM32F0xx_HAL_Driver/Inc/stm32f0xx_ll_exti.h **** 
 232:Drivers/STM32F0xx_HAL_Driver/Inc/stm32f0xx_ll_exti.h **** 
 233:Drivers/STM32F0xx_HAL_Driver/Inc/stm32f0xx_ll_exti.h **** /**
 234:Drivers/STM32F0xx_HAL_Driver/Inc/stm32f0xx_ll_exti.h ****   * @}
 235:Drivers/STM32F0xx_HAL_Driver/Inc/stm32f0xx_ll_exti.h ****   */
 236:Drivers/STM32F0xx_HAL_Driver/Inc/stm32f0xx_ll_exti.h **** 
 237:Drivers/STM32F0xx_HAL_Driver/Inc/stm32f0xx_ll_exti.h **** 
 238:Drivers/STM32F0xx_HAL_Driver/Inc/stm32f0xx_ll_exti.h **** 
 239:Drivers/STM32F0xx_HAL_Driver/Inc/stm32f0xx_ll_exti.h **** /* Exported functions --------------------------------------------------------*/
 240:Drivers/STM32F0xx_HAL_Driver/Inc/stm32f0xx_ll_exti.h **** /** @defgroup EXTI_LL_Exported_Functions EXTI Exported Functions
 241:Drivers/STM32F0xx_HAL_Driver/Inc/stm32f0xx_ll_exti.h ****  * @{
 242:Drivers/STM32F0xx_HAL_Driver/Inc/stm32f0xx_ll_exti.h ****  */
 243:Drivers/STM32F0xx_HAL_Driver/Inc/stm32f0xx_ll_exti.h **** /** @defgroup EXTI_LL_EF_IT_Management IT_Management
 244:Drivers/STM32F0xx_HAL_Driver/Inc/stm32f0xx_ll_exti.h ****   * @{
 245:Drivers/STM32F0xx_HAL_Driver/Inc/stm32f0xx_ll_exti.h ****   */
 246:Drivers/STM32F0xx_HAL_Driver/Inc/stm32f0xx_ll_exti.h **** 
 247:Drivers/STM32F0xx_HAL_Driver/Inc/stm32f0xx_ll_exti.h **** /**
 248:Drivers/STM32F0xx_HAL_Driver/Inc/stm32f0xx_ll_exti.h ****   * @brief  Enable ExtiLine Interrupt request for Lines in range 0 to 31
 249:Drivers/STM32F0xx_HAL_Driver/Inc/stm32f0xx_ll_exti.h ****   * @note The reset value for the direct or internal lines (see RM)
 250:Drivers/STM32F0xx_HAL_Driver/Inc/stm32f0xx_ll_exti.h ****   *       is set to 1 in order to enable the interrupt by default.
 251:Drivers/STM32F0xx_HAL_Driver/Inc/stm32f0xx_ll_exti.h ****   *       Bits are set automatically at Power on.
 252:Drivers/STM32F0xx_HAL_Driver/Inc/stm32f0xx_ll_exti.h ****   * @rmtoll IMR         IMx           LL_EXTI_EnableIT_0_31
 253:Drivers/STM32F0xx_HAL_Driver/Inc/stm32f0xx_ll_exti.h ****   * @param  ExtiLine This parameter can be one of the following values:
 254:Drivers/STM32F0xx_HAL_Driver/Inc/stm32f0xx_ll_exti.h ****   *         @arg @ref LL_EXTI_LINE_0
 255:Drivers/STM32F0xx_HAL_Driver/Inc/stm32f0xx_ll_exti.h ****   *         @arg @ref LL_EXTI_LINE_1
 256:Drivers/STM32F0xx_HAL_Driver/Inc/stm32f0xx_ll_exti.h ****   *         @arg @ref LL_EXTI_LINE_2
 257:Drivers/STM32F0xx_HAL_Driver/Inc/stm32f0xx_ll_exti.h ****   *         @arg @ref LL_EXTI_LINE_3
 258:Drivers/STM32F0xx_HAL_Driver/Inc/stm32f0xx_ll_exti.h ****   *         @arg @ref LL_EXTI_LINE_4
 259:Drivers/STM32F0xx_HAL_Driver/Inc/stm32f0xx_ll_exti.h ****   *         @arg @ref LL_EXTI_LINE_5
 260:Drivers/STM32F0xx_HAL_Driver/Inc/stm32f0xx_ll_exti.h ****   *         @arg @ref LL_EXTI_LINE_6
 261:Drivers/STM32F0xx_HAL_Driver/Inc/stm32f0xx_ll_exti.h ****   *         @arg @ref LL_EXTI_LINE_7
 262:Drivers/STM32F0xx_HAL_Driver/Inc/stm32f0xx_ll_exti.h ****   *         @arg @ref LL_EXTI_LINE_8
 263:Drivers/STM32F0xx_HAL_Driver/Inc/stm32f0xx_ll_exti.h ****   *         @arg @ref LL_EXTI_LINE_9
 264:Drivers/STM32F0xx_HAL_Driver/Inc/stm32f0xx_ll_exti.h ****   *         @arg @ref LL_EXTI_LINE_10
 265:Drivers/STM32F0xx_HAL_Driver/Inc/stm32f0xx_ll_exti.h ****   *         @arg @ref LL_EXTI_LINE_11
 266:Drivers/STM32F0xx_HAL_Driver/Inc/stm32f0xx_ll_exti.h ****   *         @arg @ref LL_EXTI_LINE_12
 267:Drivers/STM32F0xx_HAL_Driver/Inc/stm32f0xx_ll_exti.h ****   *         @arg @ref LL_EXTI_LINE_13
 268:Drivers/STM32F0xx_HAL_Driver/Inc/stm32f0xx_ll_exti.h ****   *         @arg @ref LL_EXTI_LINE_14
 269:Drivers/STM32F0xx_HAL_Driver/Inc/stm32f0xx_ll_exti.h ****   *         @arg @ref LL_EXTI_LINE_15
ARM GAS  C:\Users\strag\AppData\Local\Temp\cc8irbMQ.s 			page 10


 270:Drivers/STM32F0xx_HAL_Driver/Inc/stm32f0xx_ll_exti.h ****   *         @arg @ref LL_EXTI_LINE_16
 271:Drivers/STM32F0xx_HAL_Driver/Inc/stm32f0xx_ll_exti.h ****   *         @arg @ref LL_EXTI_LINE_17
 272:Drivers/STM32F0xx_HAL_Driver/Inc/stm32f0xx_ll_exti.h ****   *         @arg @ref LL_EXTI_LINE_18
 273:Drivers/STM32F0xx_HAL_Driver/Inc/stm32f0xx_ll_exti.h ****   *         @arg @ref LL_EXTI_LINE_19
 274:Drivers/STM32F0xx_HAL_Driver/Inc/stm32f0xx_ll_exti.h ****   *         @arg @ref LL_EXTI_LINE_20
 275:Drivers/STM32F0xx_HAL_Driver/Inc/stm32f0xx_ll_exti.h ****   *         @arg @ref LL_EXTI_LINE_21
 276:Drivers/STM32F0xx_HAL_Driver/Inc/stm32f0xx_ll_exti.h ****   *         @arg @ref LL_EXTI_LINE_22
 277:Drivers/STM32F0xx_HAL_Driver/Inc/stm32f0xx_ll_exti.h ****   *         @arg @ref LL_EXTI_LINE_23
 278:Drivers/STM32F0xx_HAL_Driver/Inc/stm32f0xx_ll_exti.h ****   *         @arg @ref LL_EXTI_LINE_24
 279:Drivers/STM32F0xx_HAL_Driver/Inc/stm32f0xx_ll_exti.h ****   *         @arg @ref LL_EXTI_LINE_25
 280:Drivers/STM32F0xx_HAL_Driver/Inc/stm32f0xx_ll_exti.h ****   *         @arg @ref LL_EXTI_LINE_26
 281:Drivers/STM32F0xx_HAL_Driver/Inc/stm32f0xx_ll_exti.h ****   *         @arg @ref LL_EXTI_LINE_27
 282:Drivers/STM32F0xx_HAL_Driver/Inc/stm32f0xx_ll_exti.h ****   *         @arg @ref LL_EXTI_LINE_28
 283:Drivers/STM32F0xx_HAL_Driver/Inc/stm32f0xx_ll_exti.h ****   *         @arg @ref LL_EXTI_LINE_29
 284:Drivers/STM32F0xx_HAL_Driver/Inc/stm32f0xx_ll_exti.h ****   *         @arg @ref LL_EXTI_LINE_30
 285:Drivers/STM32F0xx_HAL_Driver/Inc/stm32f0xx_ll_exti.h ****   *         @arg @ref LL_EXTI_LINE_31
 286:Drivers/STM32F0xx_HAL_Driver/Inc/stm32f0xx_ll_exti.h ****   *         @arg @ref LL_EXTI_LINE_ALL_0_31
 287:Drivers/STM32F0xx_HAL_Driver/Inc/stm32f0xx_ll_exti.h ****   * @note   Please check each device line mapping for EXTI Line availability
 288:Drivers/STM32F0xx_HAL_Driver/Inc/stm32f0xx_ll_exti.h ****   * @retval None
 289:Drivers/STM32F0xx_HAL_Driver/Inc/stm32f0xx_ll_exti.h ****   */
 290:Drivers/STM32F0xx_HAL_Driver/Inc/stm32f0xx_ll_exti.h **** __STATIC_INLINE void LL_EXTI_EnableIT_0_31(uint32_t ExtiLine)
 291:Drivers/STM32F0xx_HAL_Driver/Inc/stm32f0xx_ll_exti.h **** {
 292:Drivers/STM32F0xx_HAL_Driver/Inc/stm32f0xx_ll_exti.h ****   SET_BIT(EXTI->IMR, ExtiLine);
 293:Drivers/STM32F0xx_HAL_Driver/Inc/stm32f0xx_ll_exti.h **** }
 294:Drivers/STM32F0xx_HAL_Driver/Inc/stm32f0xx_ll_exti.h **** 
 295:Drivers/STM32F0xx_HAL_Driver/Inc/stm32f0xx_ll_exti.h **** /**
 296:Drivers/STM32F0xx_HAL_Driver/Inc/stm32f0xx_ll_exti.h ****   * @brief  Disable ExtiLine Interrupt request for Lines in range 0 to 31
 297:Drivers/STM32F0xx_HAL_Driver/Inc/stm32f0xx_ll_exti.h ****   * @note The reset value for the direct or internal lines (see RM)
 298:Drivers/STM32F0xx_HAL_Driver/Inc/stm32f0xx_ll_exti.h ****   *       is set to 1 in order to enable the interrupt by default.
 299:Drivers/STM32F0xx_HAL_Driver/Inc/stm32f0xx_ll_exti.h ****   *       Bits are set automatically at Power on.
 300:Drivers/STM32F0xx_HAL_Driver/Inc/stm32f0xx_ll_exti.h ****   * @rmtoll IMR         IMx           LL_EXTI_DisableIT_0_31
 301:Drivers/STM32F0xx_HAL_Driver/Inc/stm32f0xx_ll_exti.h ****   * @param  ExtiLine This parameter can be one of the following values:
 302:Drivers/STM32F0xx_HAL_Driver/Inc/stm32f0xx_ll_exti.h ****   *         @arg @ref LL_EXTI_LINE_0
 303:Drivers/STM32F0xx_HAL_Driver/Inc/stm32f0xx_ll_exti.h ****   *         @arg @ref LL_EXTI_LINE_1
 304:Drivers/STM32F0xx_HAL_Driver/Inc/stm32f0xx_ll_exti.h ****   *         @arg @ref LL_EXTI_LINE_2
 305:Drivers/STM32F0xx_HAL_Driver/Inc/stm32f0xx_ll_exti.h ****   *         @arg @ref LL_EXTI_LINE_3
 306:Drivers/STM32F0xx_HAL_Driver/Inc/stm32f0xx_ll_exti.h ****   *         @arg @ref LL_EXTI_LINE_4
 307:Drivers/STM32F0xx_HAL_Driver/Inc/stm32f0xx_ll_exti.h ****   *         @arg @ref LL_EXTI_LINE_5
 308:Drivers/STM32F0xx_HAL_Driver/Inc/stm32f0xx_ll_exti.h ****   *         @arg @ref LL_EXTI_LINE_6
 309:Drivers/STM32F0xx_HAL_Driver/Inc/stm32f0xx_ll_exti.h ****   *         @arg @ref LL_EXTI_LINE_7
 310:Drivers/STM32F0xx_HAL_Driver/Inc/stm32f0xx_ll_exti.h ****   *         @arg @ref LL_EXTI_LINE_8
 311:Drivers/STM32F0xx_HAL_Driver/Inc/stm32f0xx_ll_exti.h ****   *         @arg @ref LL_EXTI_LINE_9
 312:Drivers/STM32F0xx_HAL_Driver/Inc/stm32f0xx_ll_exti.h ****   *         @arg @ref LL_EXTI_LINE_10
 313:Drivers/STM32F0xx_HAL_Driver/Inc/stm32f0xx_ll_exti.h ****   *         @arg @ref LL_EXTI_LINE_11
 314:Drivers/STM32F0xx_HAL_Driver/Inc/stm32f0xx_ll_exti.h ****   *         @arg @ref LL_EXTI_LINE_12
 315:Drivers/STM32F0xx_HAL_Driver/Inc/stm32f0xx_ll_exti.h ****   *         @arg @ref LL_EXTI_LINE_13
 316:Drivers/STM32F0xx_HAL_Driver/Inc/stm32f0xx_ll_exti.h ****   *         @arg @ref LL_EXTI_LINE_14
 317:Drivers/STM32F0xx_HAL_Driver/Inc/stm32f0xx_ll_exti.h ****   *         @arg @ref LL_EXTI_LINE_15
 318:Drivers/STM32F0xx_HAL_Driver/Inc/stm32f0xx_ll_exti.h ****   *         @arg @ref LL_EXTI_LINE_16
 319:Drivers/STM32F0xx_HAL_Driver/Inc/stm32f0xx_ll_exti.h ****   *         @arg @ref LL_EXTI_LINE_17
 320:Drivers/STM32F0xx_HAL_Driver/Inc/stm32f0xx_ll_exti.h ****   *         @arg @ref LL_EXTI_LINE_18
 321:Drivers/STM32F0xx_HAL_Driver/Inc/stm32f0xx_ll_exti.h ****   *         @arg @ref LL_EXTI_LINE_19
 322:Drivers/STM32F0xx_HAL_Driver/Inc/stm32f0xx_ll_exti.h ****   *         @arg @ref LL_EXTI_LINE_20
 323:Drivers/STM32F0xx_HAL_Driver/Inc/stm32f0xx_ll_exti.h ****   *         @arg @ref LL_EXTI_LINE_21
 324:Drivers/STM32F0xx_HAL_Driver/Inc/stm32f0xx_ll_exti.h ****   *         @arg @ref LL_EXTI_LINE_22
 325:Drivers/STM32F0xx_HAL_Driver/Inc/stm32f0xx_ll_exti.h ****   *         @arg @ref LL_EXTI_LINE_23
 326:Drivers/STM32F0xx_HAL_Driver/Inc/stm32f0xx_ll_exti.h ****   *         @arg @ref LL_EXTI_LINE_24
ARM GAS  C:\Users\strag\AppData\Local\Temp\cc8irbMQ.s 			page 11


 327:Drivers/STM32F0xx_HAL_Driver/Inc/stm32f0xx_ll_exti.h ****   *         @arg @ref LL_EXTI_LINE_25
 328:Drivers/STM32F0xx_HAL_Driver/Inc/stm32f0xx_ll_exti.h ****   *         @arg @ref LL_EXTI_LINE_26
 329:Drivers/STM32F0xx_HAL_Driver/Inc/stm32f0xx_ll_exti.h ****   *         @arg @ref LL_EXTI_LINE_27
 330:Drivers/STM32F0xx_HAL_Driver/Inc/stm32f0xx_ll_exti.h ****   *         @arg @ref LL_EXTI_LINE_28
 331:Drivers/STM32F0xx_HAL_Driver/Inc/stm32f0xx_ll_exti.h ****   *         @arg @ref LL_EXTI_LINE_29
 332:Drivers/STM32F0xx_HAL_Driver/Inc/stm32f0xx_ll_exti.h ****   *         @arg @ref LL_EXTI_LINE_30
 333:Drivers/STM32F0xx_HAL_Driver/Inc/stm32f0xx_ll_exti.h ****   *         @arg @ref LL_EXTI_LINE_31
 334:Drivers/STM32F0xx_HAL_Driver/Inc/stm32f0xx_ll_exti.h ****   *         @arg @ref LL_EXTI_LINE_ALL_0_31
 335:Drivers/STM32F0xx_HAL_Driver/Inc/stm32f0xx_ll_exti.h ****   * @note   Please check each device line mapping for EXTI Line availability
 336:Drivers/STM32F0xx_HAL_Driver/Inc/stm32f0xx_ll_exti.h ****   * @retval None
 337:Drivers/STM32F0xx_HAL_Driver/Inc/stm32f0xx_ll_exti.h ****   */
 338:Drivers/STM32F0xx_HAL_Driver/Inc/stm32f0xx_ll_exti.h **** __STATIC_INLINE void LL_EXTI_DisableIT_0_31(uint32_t ExtiLine)
 339:Drivers/STM32F0xx_HAL_Driver/Inc/stm32f0xx_ll_exti.h **** {
 340:Drivers/STM32F0xx_HAL_Driver/Inc/stm32f0xx_ll_exti.h ****   CLEAR_BIT(EXTI->IMR, ExtiLine);
 341:Drivers/STM32F0xx_HAL_Driver/Inc/stm32f0xx_ll_exti.h **** }
 342:Drivers/STM32F0xx_HAL_Driver/Inc/stm32f0xx_ll_exti.h **** 
 343:Drivers/STM32F0xx_HAL_Driver/Inc/stm32f0xx_ll_exti.h **** 
 344:Drivers/STM32F0xx_HAL_Driver/Inc/stm32f0xx_ll_exti.h **** /**
 345:Drivers/STM32F0xx_HAL_Driver/Inc/stm32f0xx_ll_exti.h ****   * @brief  Indicate if ExtiLine Interrupt request is enabled for Lines in range 0 to 31
 346:Drivers/STM32F0xx_HAL_Driver/Inc/stm32f0xx_ll_exti.h ****   * @note The reset value for the direct or internal lines (see RM)
 347:Drivers/STM32F0xx_HAL_Driver/Inc/stm32f0xx_ll_exti.h ****   *       is set to 1 in order to enable the interrupt by default.
 348:Drivers/STM32F0xx_HAL_Driver/Inc/stm32f0xx_ll_exti.h ****   *       Bits are set automatically at Power on.
 349:Drivers/STM32F0xx_HAL_Driver/Inc/stm32f0xx_ll_exti.h ****   * @rmtoll IMR         IMx           LL_EXTI_IsEnabledIT_0_31
 350:Drivers/STM32F0xx_HAL_Driver/Inc/stm32f0xx_ll_exti.h ****   * @param  ExtiLine This parameter can be one of the following values:
 351:Drivers/STM32F0xx_HAL_Driver/Inc/stm32f0xx_ll_exti.h ****   *         @arg @ref LL_EXTI_LINE_0
 352:Drivers/STM32F0xx_HAL_Driver/Inc/stm32f0xx_ll_exti.h ****   *         @arg @ref LL_EXTI_LINE_1
 353:Drivers/STM32F0xx_HAL_Driver/Inc/stm32f0xx_ll_exti.h ****   *         @arg @ref LL_EXTI_LINE_2
 354:Drivers/STM32F0xx_HAL_Driver/Inc/stm32f0xx_ll_exti.h ****   *         @arg @ref LL_EXTI_LINE_3
 355:Drivers/STM32F0xx_HAL_Driver/Inc/stm32f0xx_ll_exti.h ****   *         @arg @ref LL_EXTI_LINE_4
 356:Drivers/STM32F0xx_HAL_Driver/Inc/stm32f0xx_ll_exti.h ****   *         @arg @ref LL_EXTI_LINE_5
 357:Drivers/STM32F0xx_HAL_Driver/Inc/stm32f0xx_ll_exti.h ****   *         @arg @ref LL_EXTI_LINE_6
 358:Drivers/STM32F0xx_HAL_Driver/Inc/stm32f0xx_ll_exti.h ****   *         @arg @ref LL_EXTI_LINE_7
 359:Drivers/STM32F0xx_HAL_Driver/Inc/stm32f0xx_ll_exti.h ****   *         @arg @ref LL_EXTI_LINE_8
 360:Drivers/STM32F0xx_HAL_Driver/Inc/stm32f0xx_ll_exti.h ****   *         @arg @ref LL_EXTI_LINE_9
 361:Drivers/STM32F0xx_HAL_Driver/Inc/stm32f0xx_ll_exti.h ****   *         @arg @ref LL_EXTI_LINE_10
 362:Drivers/STM32F0xx_HAL_Driver/Inc/stm32f0xx_ll_exti.h ****   *         @arg @ref LL_EXTI_LINE_11
 363:Drivers/STM32F0xx_HAL_Driver/Inc/stm32f0xx_ll_exti.h ****   *         @arg @ref LL_EXTI_LINE_12
 364:Drivers/STM32F0xx_HAL_Driver/Inc/stm32f0xx_ll_exti.h ****   *         @arg @ref LL_EXTI_LINE_13
 365:Drivers/STM32F0xx_HAL_Driver/Inc/stm32f0xx_ll_exti.h ****   *         @arg @ref LL_EXTI_LINE_14
 366:Drivers/STM32F0xx_HAL_Driver/Inc/stm32f0xx_ll_exti.h ****   *         @arg @ref LL_EXTI_LINE_15
 367:Drivers/STM32F0xx_HAL_Driver/Inc/stm32f0xx_ll_exti.h ****   *         @arg @ref LL_EXTI_LINE_16
 368:Drivers/STM32F0xx_HAL_Driver/Inc/stm32f0xx_ll_exti.h ****   *         @arg @ref LL_EXTI_LINE_17
 369:Drivers/STM32F0xx_HAL_Driver/Inc/stm32f0xx_ll_exti.h ****   *         @arg @ref LL_EXTI_LINE_18
 370:Drivers/STM32F0xx_HAL_Driver/Inc/stm32f0xx_ll_exti.h ****   *         @arg @ref LL_EXTI_LINE_19
 371:Drivers/STM32F0xx_HAL_Driver/Inc/stm32f0xx_ll_exti.h ****   *         @arg @ref LL_EXTI_LINE_20
 372:Drivers/STM32F0xx_HAL_Driver/Inc/stm32f0xx_ll_exti.h ****   *         @arg @ref LL_EXTI_LINE_21
 373:Drivers/STM32F0xx_HAL_Driver/Inc/stm32f0xx_ll_exti.h ****   *         @arg @ref LL_EXTI_LINE_22
 374:Drivers/STM32F0xx_HAL_Driver/Inc/stm32f0xx_ll_exti.h ****   *         @arg @ref LL_EXTI_LINE_23
 375:Drivers/STM32F0xx_HAL_Driver/Inc/stm32f0xx_ll_exti.h ****   *         @arg @ref LL_EXTI_LINE_24
 376:Drivers/STM32F0xx_HAL_Driver/Inc/stm32f0xx_ll_exti.h ****   *         @arg @ref LL_EXTI_LINE_25
 377:Drivers/STM32F0xx_HAL_Driver/Inc/stm32f0xx_ll_exti.h ****   *         @arg @ref LL_EXTI_LINE_26
 378:Drivers/STM32F0xx_HAL_Driver/Inc/stm32f0xx_ll_exti.h ****   *         @arg @ref LL_EXTI_LINE_27
 379:Drivers/STM32F0xx_HAL_Driver/Inc/stm32f0xx_ll_exti.h ****   *         @arg @ref LL_EXTI_LINE_28
 380:Drivers/STM32F0xx_HAL_Driver/Inc/stm32f0xx_ll_exti.h ****   *         @arg @ref LL_EXTI_LINE_29
 381:Drivers/STM32F0xx_HAL_Driver/Inc/stm32f0xx_ll_exti.h ****   *         @arg @ref LL_EXTI_LINE_30
 382:Drivers/STM32F0xx_HAL_Driver/Inc/stm32f0xx_ll_exti.h ****   *         @arg @ref LL_EXTI_LINE_31
 383:Drivers/STM32F0xx_HAL_Driver/Inc/stm32f0xx_ll_exti.h ****   *         @arg @ref LL_EXTI_LINE_ALL_0_31
ARM GAS  C:\Users\strag\AppData\Local\Temp\cc8irbMQ.s 			page 12


 384:Drivers/STM32F0xx_HAL_Driver/Inc/stm32f0xx_ll_exti.h ****   * @note   Please check each device line mapping for EXTI Line availability
 385:Drivers/STM32F0xx_HAL_Driver/Inc/stm32f0xx_ll_exti.h ****   * @retval State of bit (1 or 0).
 386:Drivers/STM32F0xx_HAL_Driver/Inc/stm32f0xx_ll_exti.h ****   */
 387:Drivers/STM32F0xx_HAL_Driver/Inc/stm32f0xx_ll_exti.h **** __STATIC_INLINE uint32_t LL_EXTI_IsEnabledIT_0_31(uint32_t ExtiLine)
 388:Drivers/STM32F0xx_HAL_Driver/Inc/stm32f0xx_ll_exti.h **** {
 389:Drivers/STM32F0xx_HAL_Driver/Inc/stm32f0xx_ll_exti.h ****   return (READ_BIT(EXTI->IMR, ExtiLine) == (ExtiLine));
 390:Drivers/STM32F0xx_HAL_Driver/Inc/stm32f0xx_ll_exti.h **** }
 391:Drivers/STM32F0xx_HAL_Driver/Inc/stm32f0xx_ll_exti.h **** 
 392:Drivers/STM32F0xx_HAL_Driver/Inc/stm32f0xx_ll_exti.h **** 
 393:Drivers/STM32F0xx_HAL_Driver/Inc/stm32f0xx_ll_exti.h **** /**
 394:Drivers/STM32F0xx_HAL_Driver/Inc/stm32f0xx_ll_exti.h ****   * @}
 395:Drivers/STM32F0xx_HAL_Driver/Inc/stm32f0xx_ll_exti.h ****   */
 396:Drivers/STM32F0xx_HAL_Driver/Inc/stm32f0xx_ll_exti.h **** 
 397:Drivers/STM32F0xx_HAL_Driver/Inc/stm32f0xx_ll_exti.h **** /** @defgroup EXTI_LL_EF_Event_Management Event_Management
 398:Drivers/STM32F0xx_HAL_Driver/Inc/stm32f0xx_ll_exti.h ****   * @{
 399:Drivers/STM32F0xx_HAL_Driver/Inc/stm32f0xx_ll_exti.h ****   */
 400:Drivers/STM32F0xx_HAL_Driver/Inc/stm32f0xx_ll_exti.h **** 
 401:Drivers/STM32F0xx_HAL_Driver/Inc/stm32f0xx_ll_exti.h **** /**
 402:Drivers/STM32F0xx_HAL_Driver/Inc/stm32f0xx_ll_exti.h ****   * @brief  Enable ExtiLine Event request for Lines in range 0 to 31
 403:Drivers/STM32F0xx_HAL_Driver/Inc/stm32f0xx_ll_exti.h ****   * @rmtoll EMR         EMx           LL_EXTI_EnableEvent_0_31
 404:Drivers/STM32F0xx_HAL_Driver/Inc/stm32f0xx_ll_exti.h ****   * @param  ExtiLine This parameter can be one of the following values:
 405:Drivers/STM32F0xx_HAL_Driver/Inc/stm32f0xx_ll_exti.h ****   *         @arg @ref LL_EXTI_LINE_0
 406:Drivers/STM32F0xx_HAL_Driver/Inc/stm32f0xx_ll_exti.h ****   *         @arg @ref LL_EXTI_LINE_1
 407:Drivers/STM32F0xx_HAL_Driver/Inc/stm32f0xx_ll_exti.h ****   *         @arg @ref LL_EXTI_LINE_2
 408:Drivers/STM32F0xx_HAL_Driver/Inc/stm32f0xx_ll_exti.h ****   *         @arg @ref LL_EXTI_LINE_3
 409:Drivers/STM32F0xx_HAL_Driver/Inc/stm32f0xx_ll_exti.h ****   *         @arg @ref LL_EXTI_LINE_4
 410:Drivers/STM32F0xx_HAL_Driver/Inc/stm32f0xx_ll_exti.h ****   *         @arg @ref LL_EXTI_LINE_5
 411:Drivers/STM32F0xx_HAL_Driver/Inc/stm32f0xx_ll_exti.h ****   *         @arg @ref LL_EXTI_LINE_6
 412:Drivers/STM32F0xx_HAL_Driver/Inc/stm32f0xx_ll_exti.h ****   *         @arg @ref LL_EXTI_LINE_7
 413:Drivers/STM32F0xx_HAL_Driver/Inc/stm32f0xx_ll_exti.h ****   *         @arg @ref LL_EXTI_LINE_8
 414:Drivers/STM32F0xx_HAL_Driver/Inc/stm32f0xx_ll_exti.h ****   *         @arg @ref LL_EXTI_LINE_9
 415:Drivers/STM32F0xx_HAL_Driver/Inc/stm32f0xx_ll_exti.h ****   *         @arg @ref LL_EXTI_LINE_10
 416:Drivers/STM32F0xx_HAL_Driver/Inc/stm32f0xx_ll_exti.h ****   *         @arg @ref LL_EXTI_LINE_11
 417:Drivers/STM32F0xx_HAL_Driver/Inc/stm32f0xx_ll_exti.h ****   *         @arg @ref LL_EXTI_LINE_12
 418:Drivers/STM32F0xx_HAL_Driver/Inc/stm32f0xx_ll_exti.h ****   *         @arg @ref LL_EXTI_LINE_13
 419:Drivers/STM32F0xx_HAL_Driver/Inc/stm32f0xx_ll_exti.h ****   *         @arg @ref LL_EXTI_LINE_14
 420:Drivers/STM32F0xx_HAL_Driver/Inc/stm32f0xx_ll_exti.h ****   *         @arg @ref LL_EXTI_LINE_15
 421:Drivers/STM32F0xx_HAL_Driver/Inc/stm32f0xx_ll_exti.h ****   *         @arg @ref LL_EXTI_LINE_16
 422:Drivers/STM32F0xx_HAL_Driver/Inc/stm32f0xx_ll_exti.h ****   *         @arg @ref LL_EXTI_LINE_17
 423:Drivers/STM32F0xx_HAL_Driver/Inc/stm32f0xx_ll_exti.h ****   *         @arg @ref LL_EXTI_LINE_18
 424:Drivers/STM32F0xx_HAL_Driver/Inc/stm32f0xx_ll_exti.h ****   *         @arg @ref LL_EXTI_LINE_19
 425:Drivers/STM32F0xx_HAL_Driver/Inc/stm32f0xx_ll_exti.h ****   *         @arg @ref LL_EXTI_LINE_20
 426:Drivers/STM32F0xx_HAL_Driver/Inc/stm32f0xx_ll_exti.h ****   *         @arg @ref LL_EXTI_LINE_21
 427:Drivers/STM32F0xx_HAL_Driver/Inc/stm32f0xx_ll_exti.h ****   *         @arg @ref LL_EXTI_LINE_22
 428:Drivers/STM32F0xx_HAL_Driver/Inc/stm32f0xx_ll_exti.h ****   *         @arg @ref LL_EXTI_LINE_23
 429:Drivers/STM32F0xx_HAL_Driver/Inc/stm32f0xx_ll_exti.h ****   *         @arg @ref LL_EXTI_LINE_24
 430:Drivers/STM32F0xx_HAL_Driver/Inc/stm32f0xx_ll_exti.h ****   *         @arg @ref LL_EXTI_LINE_25
 431:Drivers/STM32F0xx_HAL_Driver/Inc/stm32f0xx_ll_exti.h ****   *         @arg @ref LL_EXTI_LINE_26
 432:Drivers/STM32F0xx_HAL_Driver/Inc/stm32f0xx_ll_exti.h ****   *         @arg @ref LL_EXTI_LINE_27
 433:Drivers/STM32F0xx_HAL_Driver/Inc/stm32f0xx_ll_exti.h ****   *         @arg @ref LL_EXTI_LINE_28
 434:Drivers/STM32F0xx_HAL_Driver/Inc/stm32f0xx_ll_exti.h ****   *         @arg @ref LL_EXTI_LINE_29
 435:Drivers/STM32F0xx_HAL_Driver/Inc/stm32f0xx_ll_exti.h ****   *         @arg @ref LL_EXTI_LINE_30
 436:Drivers/STM32F0xx_HAL_Driver/Inc/stm32f0xx_ll_exti.h ****   *         @arg @ref LL_EXTI_LINE_31
 437:Drivers/STM32F0xx_HAL_Driver/Inc/stm32f0xx_ll_exti.h ****   *         @arg @ref LL_EXTI_LINE_ALL_0_31
 438:Drivers/STM32F0xx_HAL_Driver/Inc/stm32f0xx_ll_exti.h ****   * @note   Please check each device line mapping for EXTI Line availability
 439:Drivers/STM32F0xx_HAL_Driver/Inc/stm32f0xx_ll_exti.h ****   * @retval None
 440:Drivers/STM32F0xx_HAL_Driver/Inc/stm32f0xx_ll_exti.h ****   */
ARM GAS  C:\Users\strag\AppData\Local\Temp\cc8irbMQ.s 			page 13


 441:Drivers/STM32F0xx_HAL_Driver/Inc/stm32f0xx_ll_exti.h **** __STATIC_INLINE void LL_EXTI_EnableEvent_0_31(uint32_t ExtiLine)
 442:Drivers/STM32F0xx_HAL_Driver/Inc/stm32f0xx_ll_exti.h **** {
 443:Drivers/STM32F0xx_HAL_Driver/Inc/stm32f0xx_ll_exti.h ****   SET_BIT(EXTI->EMR, ExtiLine);
 444:Drivers/STM32F0xx_HAL_Driver/Inc/stm32f0xx_ll_exti.h **** 
 445:Drivers/STM32F0xx_HAL_Driver/Inc/stm32f0xx_ll_exti.h **** }
 446:Drivers/STM32F0xx_HAL_Driver/Inc/stm32f0xx_ll_exti.h **** 
 447:Drivers/STM32F0xx_HAL_Driver/Inc/stm32f0xx_ll_exti.h **** 
 448:Drivers/STM32F0xx_HAL_Driver/Inc/stm32f0xx_ll_exti.h **** /**
 449:Drivers/STM32F0xx_HAL_Driver/Inc/stm32f0xx_ll_exti.h ****   * @brief  Disable ExtiLine Event request for Lines in range 0 to 31
 450:Drivers/STM32F0xx_HAL_Driver/Inc/stm32f0xx_ll_exti.h ****   * @rmtoll EMR         EMx           LL_EXTI_DisableEvent_0_31
 451:Drivers/STM32F0xx_HAL_Driver/Inc/stm32f0xx_ll_exti.h ****   * @param  ExtiLine This parameter can be one of the following values:
 452:Drivers/STM32F0xx_HAL_Driver/Inc/stm32f0xx_ll_exti.h ****   *         @arg @ref LL_EXTI_LINE_0
 453:Drivers/STM32F0xx_HAL_Driver/Inc/stm32f0xx_ll_exti.h ****   *         @arg @ref LL_EXTI_LINE_1
 454:Drivers/STM32F0xx_HAL_Driver/Inc/stm32f0xx_ll_exti.h ****   *         @arg @ref LL_EXTI_LINE_2
 455:Drivers/STM32F0xx_HAL_Driver/Inc/stm32f0xx_ll_exti.h ****   *         @arg @ref LL_EXTI_LINE_3
 456:Drivers/STM32F0xx_HAL_Driver/Inc/stm32f0xx_ll_exti.h ****   *         @arg @ref LL_EXTI_LINE_4
 457:Drivers/STM32F0xx_HAL_Driver/Inc/stm32f0xx_ll_exti.h ****   *         @arg @ref LL_EXTI_LINE_5
 458:Drivers/STM32F0xx_HAL_Driver/Inc/stm32f0xx_ll_exti.h ****   *         @arg @ref LL_EXTI_LINE_6
 459:Drivers/STM32F0xx_HAL_Driver/Inc/stm32f0xx_ll_exti.h ****   *         @arg @ref LL_EXTI_LINE_7
 460:Drivers/STM32F0xx_HAL_Driver/Inc/stm32f0xx_ll_exti.h ****   *         @arg @ref LL_EXTI_LINE_8
 461:Drivers/STM32F0xx_HAL_Driver/Inc/stm32f0xx_ll_exti.h ****   *         @arg @ref LL_EXTI_LINE_9
 462:Drivers/STM32F0xx_HAL_Driver/Inc/stm32f0xx_ll_exti.h ****   *         @arg @ref LL_EXTI_LINE_10
 463:Drivers/STM32F0xx_HAL_Driver/Inc/stm32f0xx_ll_exti.h ****   *         @arg @ref LL_EXTI_LINE_11
 464:Drivers/STM32F0xx_HAL_Driver/Inc/stm32f0xx_ll_exti.h ****   *         @arg @ref LL_EXTI_LINE_12
 465:Drivers/STM32F0xx_HAL_Driver/Inc/stm32f0xx_ll_exti.h ****   *         @arg @ref LL_EXTI_LINE_13
 466:Drivers/STM32F0xx_HAL_Driver/Inc/stm32f0xx_ll_exti.h ****   *         @arg @ref LL_EXTI_LINE_14
 467:Drivers/STM32F0xx_HAL_Driver/Inc/stm32f0xx_ll_exti.h ****   *         @arg @ref LL_EXTI_LINE_15
 468:Drivers/STM32F0xx_HAL_Driver/Inc/stm32f0xx_ll_exti.h ****   *         @arg @ref LL_EXTI_LINE_16
 469:Drivers/STM32F0xx_HAL_Driver/Inc/stm32f0xx_ll_exti.h ****   *         @arg @ref LL_EXTI_LINE_17
 470:Drivers/STM32F0xx_HAL_Driver/Inc/stm32f0xx_ll_exti.h ****   *         @arg @ref LL_EXTI_LINE_18
 471:Drivers/STM32F0xx_HAL_Driver/Inc/stm32f0xx_ll_exti.h ****   *         @arg @ref LL_EXTI_LINE_19
 472:Drivers/STM32F0xx_HAL_Driver/Inc/stm32f0xx_ll_exti.h ****   *         @arg @ref LL_EXTI_LINE_20
 473:Drivers/STM32F0xx_HAL_Driver/Inc/stm32f0xx_ll_exti.h ****   *         @arg @ref LL_EXTI_LINE_21
 474:Drivers/STM32F0xx_HAL_Driver/Inc/stm32f0xx_ll_exti.h ****   *         @arg @ref LL_EXTI_LINE_22
 475:Drivers/STM32F0xx_HAL_Driver/Inc/stm32f0xx_ll_exti.h ****   *         @arg @ref LL_EXTI_LINE_23
 476:Drivers/STM32F0xx_HAL_Driver/Inc/stm32f0xx_ll_exti.h ****   *         @arg @ref LL_EXTI_LINE_24
 477:Drivers/STM32F0xx_HAL_Driver/Inc/stm32f0xx_ll_exti.h ****   *         @arg @ref LL_EXTI_LINE_25
 478:Drivers/STM32F0xx_HAL_Driver/Inc/stm32f0xx_ll_exti.h ****   *         @arg @ref LL_EXTI_LINE_26
 479:Drivers/STM32F0xx_HAL_Driver/Inc/stm32f0xx_ll_exti.h ****   *         @arg @ref LL_EXTI_LINE_27
 480:Drivers/STM32F0xx_HAL_Driver/Inc/stm32f0xx_ll_exti.h ****   *         @arg @ref LL_EXTI_LINE_28
 481:Drivers/STM32F0xx_HAL_Driver/Inc/stm32f0xx_ll_exti.h ****   *         @arg @ref LL_EXTI_LINE_29
 482:Drivers/STM32F0xx_HAL_Driver/Inc/stm32f0xx_ll_exti.h ****   *         @arg @ref LL_EXTI_LINE_30
 483:Drivers/STM32F0xx_HAL_Driver/Inc/stm32f0xx_ll_exti.h ****   *         @arg @ref LL_EXTI_LINE_31
 484:Drivers/STM32F0xx_HAL_Driver/Inc/stm32f0xx_ll_exti.h ****   *         @arg @ref LL_EXTI_LINE_ALL_0_31
 485:Drivers/STM32F0xx_HAL_Driver/Inc/stm32f0xx_ll_exti.h ****   * @note   Please check each device line mapping for EXTI Line availability
 486:Drivers/STM32F0xx_HAL_Driver/Inc/stm32f0xx_ll_exti.h ****   * @retval None
 487:Drivers/STM32F0xx_HAL_Driver/Inc/stm32f0xx_ll_exti.h ****   */
 488:Drivers/STM32F0xx_HAL_Driver/Inc/stm32f0xx_ll_exti.h **** __STATIC_INLINE void LL_EXTI_DisableEvent_0_31(uint32_t ExtiLine)
 489:Drivers/STM32F0xx_HAL_Driver/Inc/stm32f0xx_ll_exti.h **** {
 490:Drivers/STM32F0xx_HAL_Driver/Inc/stm32f0xx_ll_exti.h ****   CLEAR_BIT(EXTI->EMR, ExtiLine);
 103              		.loc 2 490 0
 104 001e 2B4A     		ldr	r2, .L19
 105 0020 5168     		ldr	r1, [r2, #4]
 106 0022 9943     		bics	r1, r3
 107 0024 5160     		str	r1, [r2, #4]
 108              	.LVL3:
 109              	.LBE31:
ARM GAS  C:\Users\strag\AppData\Local\Temp\cc8irbMQ.s 			page 14


 110              	.LBE30:
 111              	.LBB32:
 112              	.LBB33:
 292:Drivers/STM32F0xx_HAL_Driver/Inc/stm32f0xx_ll_exti.h **** }
 113              		.loc 2 292 0
 114 0026 1368     		ldr	r3, [r2]
 115 0028 0168     		ldr	r1, [r0]
 116 002a 0B43     		orrs	r3, r1
 117 002c 1360     		str	r3, [r2]
 118              	.LVL4:
 119              	.LBE33:
 120              	.LBE32:
 131:Drivers/STM32F0xx_HAL_Driver/Src/stm32f0xx_ll_exti.c ****   /* Check the parameters */
 121              		.loc 1 131 0
 122 002e 0123     		movs	r3, #1
 123 0030 14E0     		b	.L7
 124              	.LVL5:
 125              	.L8:
 126              	.LBB34:
 127              	.LBB35:
 340:Drivers/STM32F0xx_HAL_Driver/Inc/stm32f0xx_ll_exti.h **** }
 128              		.loc 2 340 0
 129 0032 264A     		ldr	r2, .L19
 130 0034 1168     		ldr	r1, [r2]
 131 0036 9943     		bics	r1, r3
 132 0038 1160     		str	r1, [r2]
 133              	.LVL6:
 134              	.LBE35:
 135              	.LBE34:
 136              	.LBB36:
 137              	.LBB37:
 443:Drivers/STM32F0xx_HAL_Driver/Inc/stm32f0xx_ll_exti.h **** 
 138              		.loc 2 443 0
 139 003a 5368     		ldr	r3, [r2, #4]
 140 003c 0168     		ldr	r1, [r0]
 141 003e 0B43     		orrs	r3, r1
 142 0040 5360     		str	r3, [r2, #4]
 143              	.LVL7:
 144              	.LBE37:
 145              	.LBE36:
 131:Drivers/STM32F0xx_HAL_Driver/Src/stm32f0xx_ll_exti.c ****   /* Check the parameters */
 146              		.loc 1 131 0
 147 0042 0123     		movs	r3, #1
 148 0044 0AE0     		b	.L7
 149              	.LVL8:
 150              	.L10:
 151              	.LBB38:
 152              	.LBB39:
 292:Drivers/STM32F0xx_HAL_Driver/Inc/stm32f0xx_ll_exti.h **** }
 153              		.loc 2 292 0
 154 0046 214A     		ldr	r2, .L19
 155 0048 1168     		ldr	r1, [r2]
 156 004a 0B43     		orrs	r3, r1
 157              	.LVL9:
 158 004c 1360     		str	r3, [r2]
 159              	.LVL10:
 160              	.LBE39:
ARM GAS  C:\Users\strag\AppData\Local\Temp\cc8irbMQ.s 			page 15


 161              	.LBE38:
 162              	.LBB40:
 163              	.LBB41:
 443:Drivers/STM32F0xx_HAL_Driver/Inc/stm32f0xx_ll_exti.h **** 
 164              		.loc 2 443 0
 165 004e 5368     		ldr	r3, [r2, #4]
 166 0050 0168     		ldr	r1, [r0]
 167 0052 0B43     		orrs	r3, r1
 168 0054 5360     		str	r3, [r2, #4]
 169              	.LVL11:
 170              	.LBE41:
 171              	.LBE40:
 131:Drivers/STM32F0xx_HAL_Driver/Src/stm32f0xx_ll_exti.c ****   /* Check the parameters */
 172              		.loc 1 131 0
 173 0056 0123     		movs	r3, #1
 174 0058 00E0     		b	.L7
 175              	.LVL12:
 176              	.L17:
 146:Drivers/STM32F0xx_HAL_Driver/Src/stm32f0xx_ll_exti.c ****       {
 147:Drivers/STM32F0xx_HAL_Driver/Src/stm32f0xx_ll_exti.c ****         case LL_EXTI_MODE_IT:
 148:Drivers/STM32F0xx_HAL_Driver/Src/stm32f0xx_ll_exti.c ****           /* First Disable Event on provided Lines */
 149:Drivers/STM32F0xx_HAL_Driver/Src/stm32f0xx_ll_exti.c ****           LL_EXTI_DisableEvent_0_31(EXTI_InitStruct->Line_0_31);
 150:Drivers/STM32F0xx_HAL_Driver/Src/stm32f0xx_ll_exti.c ****           /* Then Enable IT on provided Lines */
 151:Drivers/STM32F0xx_HAL_Driver/Src/stm32f0xx_ll_exti.c ****           LL_EXTI_EnableIT_0_31(EXTI_InitStruct->Line_0_31);
 152:Drivers/STM32F0xx_HAL_Driver/Src/stm32f0xx_ll_exti.c ****           break;
 153:Drivers/STM32F0xx_HAL_Driver/Src/stm32f0xx_ll_exti.c ****         case LL_EXTI_MODE_EVENT:
 154:Drivers/STM32F0xx_HAL_Driver/Src/stm32f0xx_ll_exti.c ****           /* First Disable IT on provided Lines */
 155:Drivers/STM32F0xx_HAL_Driver/Src/stm32f0xx_ll_exti.c ****           LL_EXTI_DisableIT_0_31(EXTI_InitStruct->Line_0_31);
 156:Drivers/STM32F0xx_HAL_Driver/Src/stm32f0xx_ll_exti.c ****           /* Then Enable Event on provided Lines */
 157:Drivers/STM32F0xx_HAL_Driver/Src/stm32f0xx_ll_exti.c ****           LL_EXTI_EnableEvent_0_31(EXTI_InitStruct->Line_0_31);
 158:Drivers/STM32F0xx_HAL_Driver/Src/stm32f0xx_ll_exti.c ****           break;
 159:Drivers/STM32F0xx_HAL_Driver/Src/stm32f0xx_ll_exti.c ****         case LL_EXTI_MODE_IT_EVENT:
 160:Drivers/STM32F0xx_HAL_Driver/Src/stm32f0xx_ll_exti.c ****           /* Directly Enable IT & Event on provided Lines */
 161:Drivers/STM32F0xx_HAL_Driver/Src/stm32f0xx_ll_exti.c ****           LL_EXTI_EnableIT_0_31(EXTI_InitStruct->Line_0_31);
 162:Drivers/STM32F0xx_HAL_Driver/Src/stm32f0xx_ll_exti.c ****           LL_EXTI_EnableEvent_0_31(EXTI_InitStruct->Line_0_31);
 163:Drivers/STM32F0xx_HAL_Driver/Src/stm32f0xx_ll_exti.c ****           break;
 164:Drivers/STM32F0xx_HAL_Driver/Src/stm32f0xx_ll_exti.c ****         default:
 165:Drivers/STM32F0xx_HAL_Driver/Src/stm32f0xx_ll_exti.c ****           status = ERROR;
 177              		.loc 1 165 0
 178 005a 0023     		movs	r3, #0
 179              	.L7:
 180              	.LVL13:
 166:Drivers/STM32F0xx_HAL_Driver/Src/stm32f0xx_ll_exti.c ****           break;
 167:Drivers/STM32F0xx_HAL_Driver/Src/stm32f0xx_ll_exti.c ****       }
 168:Drivers/STM32F0xx_HAL_Driver/Src/stm32f0xx_ll_exti.c ****       if (EXTI_InitStruct->Trigger != LL_EXTI_TRIGGER_NONE)
 181              		.loc 1 168 0
 182 005c 8279     		ldrb	r2, [r0, #6]
 183 005e 002A     		cmp	r2, #0
 184 0060 31D0     		beq	.L6
 169:Drivers/STM32F0xx_HAL_Driver/Src/stm32f0xx_ll_exti.c ****       {
 170:Drivers/STM32F0xx_HAL_Driver/Src/stm32f0xx_ll_exti.c ****         switch (EXTI_InitStruct->Trigger)
 185              		.loc 1 170 0
 186 0062 022A     		cmp	r2, #2
 187 0064 0DD0     		beq	.L11
 188 0066 032A     		cmp	r2, #3
 189 0068 15D0     		beq	.L12
 190 006a 012A     		cmp	r2, #1
ARM GAS  C:\Users\strag\AppData\Local\Temp\cc8irbMQ.s 			page 16


 191 006c 2AD1     		bne	.L18
 192              	.LVL14:
 193              	.LBB42:
 194              	.LBB43:
 491:Drivers/STM32F0xx_HAL_Driver/Inc/stm32f0xx_ll_exti.h **** }
 492:Drivers/STM32F0xx_HAL_Driver/Inc/stm32f0xx_ll_exti.h **** 
 493:Drivers/STM32F0xx_HAL_Driver/Inc/stm32f0xx_ll_exti.h **** 
 494:Drivers/STM32F0xx_HAL_Driver/Inc/stm32f0xx_ll_exti.h **** /**
 495:Drivers/STM32F0xx_HAL_Driver/Inc/stm32f0xx_ll_exti.h ****   * @brief  Indicate if ExtiLine Event request is enabled for Lines in range 0 to 31
 496:Drivers/STM32F0xx_HAL_Driver/Inc/stm32f0xx_ll_exti.h ****   * @rmtoll EMR         EMx           LL_EXTI_IsEnabledEvent_0_31
 497:Drivers/STM32F0xx_HAL_Driver/Inc/stm32f0xx_ll_exti.h ****   * @param  ExtiLine This parameter can be one of the following values:
 498:Drivers/STM32F0xx_HAL_Driver/Inc/stm32f0xx_ll_exti.h ****   *         @arg @ref LL_EXTI_LINE_0
 499:Drivers/STM32F0xx_HAL_Driver/Inc/stm32f0xx_ll_exti.h ****   *         @arg @ref LL_EXTI_LINE_1
 500:Drivers/STM32F0xx_HAL_Driver/Inc/stm32f0xx_ll_exti.h ****   *         @arg @ref LL_EXTI_LINE_2
 501:Drivers/STM32F0xx_HAL_Driver/Inc/stm32f0xx_ll_exti.h ****   *         @arg @ref LL_EXTI_LINE_3
 502:Drivers/STM32F0xx_HAL_Driver/Inc/stm32f0xx_ll_exti.h ****   *         @arg @ref LL_EXTI_LINE_4
 503:Drivers/STM32F0xx_HAL_Driver/Inc/stm32f0xx_ll_exti.h ****   *         @arg @ref LL_EXTI_LINE_5
 504:Drivers/STM32F0xx_HAL_Driver/Inc/stm32f0xx_ll_exti.h ****   *         @arg @ref LL_EXTI_LINE_6
 505:Drivers/STM32F0xx_HAL_Driver/Inc/stm32f0xx_ll_exti.h ****   *         @arg @ref LL_EXTI_LINE_7
 506:Drivers/STM32F0xx_HAL_Driver/Inc/stm32f0xx_ll_exti.h ****   *         @arg @ref LL_EXTI_LINE_8
 507:Drivers/STM32F0xx_HAL_Driver/Inc/stm32f0xx_ll_exti.h ****   *         @arg @ref LL_EXTI_LINE_9
 508:Drivers/STM32F0xx_HAL_Driver/Inc/stm32f0xx_ll_exti.h ****   *         @arg @ref LL_EXTI_LINE_10
 509:Drivers/STM32F0xx_HAL_Driver/Inc/stm32f0xx_ll_exti.h ****   *         @arg @ref LL_EXTI_LINE_11
 510:Drivers/STM32F0xx_HAL_Driver/Inc/stm32f0xx_ll_exti.h ****   *         @arg @ref LL_EXTI_LINE_12
 511:Drivers/STM32F0xx_HAL_Driver/Inc/stm32f0xx_ll_exti.h ****   *         @arg @ref LL_EXTI_LINE_13
 512:Drivers/STM32F0xx_HAL_Driver/Inc/stm32f0xx_ll_exti.h ****   *         @arg @ref LL_EXTI_LINE_14
 513:Drivers/STM32F0xx_HAL_Driver/Inc/stm32f0xx_ll_exti.h ****   *         @arg @ref LL_EXTI_LINE_15
 514:Drivers/STM32F0xx_HAL_Driver/Inc/stm32f0xx_ll_exti.h ****   *         @arg @ref LL_EXTI_LINE_16
 515:Drivers/STM32F0xx_HAL_Driver/Inc/stm32f0xx_ll_exti.h ****   *         @arg @ref LL_EXTI_LINE_17
 516:Drivers/STM32F0xx_HAL_Driver/Inc/stm32f0xx_ll_exti.h ****   *         @arg @ref LL_EXTI_LINE_18
 517:Drivers/STM32F0xx_HAL_Driver/Inc/stm32f0xx_ll_exti.h ****   *         @arg @ref LL_EXTI_LINE_19
 518:Drivers/STM32F0xx_HAL_Driver/Inc/stm32f0xx_ll_exti.h ****   *         @arg @ref LL_EXTI_LINE_20
 519:Drivers/STM32F0xx_HAL_Driver/Inc/stm32f0xx_ll_exti.h ****   *         @arg @ref LL_EXTI_LINE_21
 520:Drivers/STM32F0xx_HAL_Driver/Inc/stm32f0xx_ll_exti.h ****   *         @arg @ref LL_EXTI_LINE_22
 521:Drivers/STM32F0xx_HAL_Driver/Inc/stm32f0xx_ll_exti.h ****   *         @arg @ref LL_EXTI_LINE_23
 522:Drivers/STM32F0xx_HAL_Driver/Inc/stm32f0xx_ll_exti.h ****   *         @arg @ref LL_EXTI_LINE_24
 523:Drivers/STM32F0xx_HAL_Driver/Inc/stm32f0xx_ll_exti.h ****   *         @arg @ref LL_EXTI_LINE_25
 524:Drivers/STM32F0xx_HAL_Driver/Inc/stm32f0xx_ll_exti.h ****   *         @arg @ref LL_EXTI_LINE_26
 525:Drivers/STM32F0xx_HAL_Driver/Inc/stm32f0xx_ll_exti.h ****   *         @arg @ref LL_EXTI_LINE_27
 526:Drivers/STM32F0xx_HAL_Driver/Inc/stm32f0xx_ll_exti.h ****   *         @arg @ref LL_EXTI_LINE_28
 527:Drivers/STM32F0xx_HAL_Driver/Inc/stm32f0xx_ll_exti.h ****   *         @arg @ref LL_EXTI_LINE_29
 528:Drivers/STM32F0xx_HAL_Driver/Inc/stm32f0xx_ll_exti.h ****   *         @arg @ref LL_EXTI_LINE_30
 529:Drivers/STM32F0xx_HAL_Driver/Inc/stm32f0xx_ll_exti.h ****   *         @arg @ref LL_EXTI_LINE_31
 530:Drivers/STM32F0xx_HAL_Driver/Inc/stm32f0xx_ll_exti.h ****   *         @arg @ref LL_EXTI_LINE_ALL_0_31
 531:Drivers/STM32F0xx_HAL_Driver/Inc/stm32f0xx_ll_exti.h ****   * @note   Please check each device line mapping for EXTI Line availability
 532:Drivers/STM32F0xx_HAL_Driver/Inc/stm32f0xx_ll_exti.h ****   * @retval State of bit (1 or 0).
 533:Drivers/STM32F0xx_HAL_Driver/Inc/stm32f0xx_ll_exti.h ****   */
 534:Drivers/STM32F0xx_HAL_Driver/Inc/stm32f0xx_ll_exti.h **** __STATIC_INLINE uint32_t LL_EXTI_IsEnabledEvent_0_31(uint32_t ExtiLine)
 535:Drivers/STM32F0xx_HAL_Driver/Inc/stm32f0xx_ll_exti.h **** {
 536:Drivers/STM32F0xx_HAL_Driver/Inc/stm32f0xx_ll_exti.h ****   return (READ_BIT(EXTI->EMR, ExtiLine) == (ExtiLine));
 537:Drivers/STM32F0xx_HAL_Driver/Inc/stm32f0xx_ll_exti.h **** 
 538:Drivers/STM32F0xx_HAL_Driver/Inc/stm32f0xx_ll_exti.h **** }
 539:Drivers/STM32F0xx_HAL_Driver/Inc/stm32f0xx_ll_exti.h **** 
 540:Drivers/STM32F0xx_HAL_Driver/Inc/stm32f0xx_ll_exti.h **** 
 541:Drivers/STM32F0xx_HAL_Driver/Inc/stm32f0xx_ll_exti.h **** /**
 542:Drivers/STM32F0xx_HAL_Driver/Inc/stm32f0xx_ll_exti.h ****   * @}
 543:Drivers/STM32F0xx_HAL_Driver/Inc/stm32f0xx_ll_exti.h ****   */
ARM GAS  C:\Users\strag\AppData\Local\Temp\cc8irbMQ.s 			page 17


 544:Drivers/STM32F0xx_HAL_Driver/Inc/stm32f0xx_ll_exti.h **** 
 545:Drivers/STM32F0xx_HAL_Driver/Inc/stm32f0xx_ll_exti.h **** /** @defgroup EXTI_LL_EF_Rising_Trigger_Management Rising_Trigger_Management
 546:Drivers/STM32F0xx_HAL_Driver/Inc/stm32f0xx_ll_exti.h ****   * @{
 547:Drivers/STM32F0xx_HAL_Driver/Inc/stm32f0xx_ll_exti.h ****   */
 548:Drivers/STM32F0xx_HAL_Driver/Inc/stm32f0xx_ll_exti.h **** 
 549:Drivers/STM32F0xx_HAL_Driver/Inc/stm32f0xx_ll_exti.h **** /**
 550:Drivers/STM32F0xx_HAL_Driver/Inc/stm32f0xx_ll_exti.h ****   * @brief  Enable ExtiLine Rising Edge Trigger for Lines in range 0 to 31
 551:Drivers/STM32F0xx_HAL_Driver/Inc/stm32f0xx_ll_exti.h ****   * @note The configurable wakeup lines are edge-triggered. No glitch must be
 552:Drivers/STM32F0xx_HAL_Driver/Inc/stm32f0xx_ll_exti.h ****   *       generated on these lines. If a rising edge on a configurable interrupt
 553:Drivers/STM32F0xx_HAL_Driver/Inc/stm32f0xx_ll_exti.h ****   *       line occurs during a write operation in the EXTI_RTSR register, the
 554:Drivers/STM32F0xx_HAL_Driver/Inc/stm32f0xx_ll_exti.h ****   *       pending bit is not set.
 555:Drivers/STM32F0xx_HAL_Driver/Inc/stm32f0xx_ll_exti.h ****   *       Rising and falling edge triggers can be set for
 556:Drivers/STM32F0xx_HAL_Driver/Inc/stm32f0xx_ll_exti.h ****   *       the same interrupt line. In this case, both generate a trigger
 557:Drivers/STM32F0xx_HAL_Driver/Inc/stm32f0xx_ll_exti.h ****   *       condition.
 558:Drivers/STM32F0xx_HAL_Driver/Inc/stm32f0xx_ll_exti.h ****   * @rmtoll RTSR        RTx           LL_EXTI_EnableRisingTrig_0_31
 559:Drivers/STM32F0xx_HAL_Driver/Inc/stm32f0xx_ll_exti.h ****   * @param  ExtiLine This parameter can be a combination of the following values:
 560:Drivers/STM32F0xx_HAL_Driver/Inc/stm32f0xx_ll_exti.h ****   *         @arg @ref LL_EXTI_LINE_0
 561:Drivers/STM32F0xx_HAL_Driver/Inc/stm32f0xx_ll_exti.h ****   *         @arg @ref LL_EXTI_LINE_1
 562:Drivers/STM32F0xx_HAL_Driver/Inc/stm32f0xx_ll_exti.h ****   *         @arg @ref LL_EXTI_LINE_2
 563:Drivers/STM32F0xx_HAL_Driver/Inc/stm32f0xx_ll_exti.h ****   *         @arg @ref LL_EXTI_LINE_3
 564:Drivers/STM32F0xx_HAL_Driver/Inc/stm32f0xx_ll_exti.h ****   *         @arg @ref LL_EXTI_LINE_4
 565:Drivers/STM32F0xx_HAL_Driver/Inc/stm32f0xx_ll_exti.h ****   *         @arg @ref LL_EXTI_LINE_5
 566:Drivers/STM32F0xx_HAL_Driver/Inc/stm32f0xx_ll_exti.h ****   *         @arg @ref LL_EXTI_LINE_6
 567:Drivers/STM32F0xx_HAL_Driver/Inc/stm32f0xx_ll_exti.h ****   *         @arg @ref LL_EXTI_LINE_7
 568:Drivers/STM32F0xx_HAL_Driver/Inc/stm32f0xx_ll_exti.h ****   *         @arg @ref LL_EXTI_LINE_8
 569:Drivers/STM32F0xx_HAL_Driver/Inc/stm32f0xx_ll_exti.h ****   *         @arg @ref LL_EXTI_LINE_9
 570:Drivers/STM32F0xx_HAL_Driver/Inc/stm32f0xx_ll_exti.h ****   *         @arg @ref LL_EXTI_LINE_10
 571:Drivers/STM32F0xx_HAL_Driver/Inc/stm32f0xx_ll_exti.h ****   *         @arg @ref LL_EXTI_LINE_11
 572:Drivers/STM32F0xx_HAL_Driver/Inc/stm32f0xx_ll_exti.h ****   *         @arg @ref LL_EXTI_LINE_12
 573:Drivers/STM32F0xx_HAL_Driver/Inc/stm32f0xx_ll_exti.h ****   *         @arg @ref LL_EXTI_LINE_13
 574:Drivers/STM32F0xx_HAL_Driver/Inc/stm32f0xx_ll_exti.h ****   *         @arg @ref LL_EXTI_LINE_14
 575:Drivers/STM32F0xx_HAL_Driver/Inc/stm32f0xx_ll_exti.h ****   *         @arg @ref LL_EXTI_LINE_15
 576:Drivers/STM32F0xx_HAL_Driver/Inc/stm32f0xx_ll_exti.h ****   *         @arg @ref LL_EXTI_LINE_16
 577:Drivers/STM32F0xx_HAL_Driver/Inc/stm32f0xx_ll_exti.h ****   *         @arg @ref LL_EXTI_LINE_18
 578:Drivers/STM32F0xx_HAL_Driver/Inc/stm32f0xx_ll_exti.h ****   *         @arg @ref LL_EXTI_LINE_19
 579:Drivers/STM32F0xx_HAL_Driver/Inc/stm32f0xx_ll_exti.h ****   *         @arg @ref LL_EXTI_LINE_20
 580:Drivers/STM32F0xx_HAL_Driver/Inc/stm32f0xx_ll_exti.h ****   *         @arg @ref LL_EXTI_LINE_21
 581:Drivers/STM32F0xx_HAL_Driver/Inc/stm32f0xx_ll_exti.h ****   *         @arg @ref LL_EXTI_LINE_22
 582:Drivers/STM32F0xx_HAL_Driver/Inc/stm32f0xx_ll_exti.h ****   *         @arg @ref LL_EXTI_LINE_29
 583:Drivers/STM32F0xx_HAL_Driver/Inc/stm32f0xx_ll_exti.h ****   *         @arg @ref LL_EXTI_LINE_30
 584:Drivers/STM32F0xx_HAL_Driver/Inc/stm32f0xx_ll_exti.h ****   *         @arg @ref LL_EXTI_LINE_31
 585:Drivers/STM32F0xx_HAL_Driver/Inc/stm32f0xx_ll_exti.h ****   * @note   Please check each device line mapping for EXTI Line availability
 586:Drivers/STM32F0xx_HAL_Driver/Inc/stm32f0xx_ll_exti.h ****   * @retval None
 587:Drivers/STM32F0xx_HAL_Driver/Inc/stm32f0xx_ll_exti.h ****   */
 588:Drivers/STM32F0xx_HAL_Driver/Inc/stm32f0xx_ll_exti.h **** __STATIC_INLINE void LL_EXTI_EnableRisingTrig_0_31(uint32_t ExtiLine)
 589:Drivers/STM32F0xx_HAL_Driver/Inc/stm32f0xx_ll_exti.h **** {
 590:Drivers/STM32F0xx_HAL_Driver/Inc/stm32f0xx_ll_exti.h ****   SET_BIT(EXTI->RTSR, ExtiLine);
 591:Drivers/STM32F0xx_HAL_Driver/Inc/stm32f0xx_ll_exti.h **** 
 592:Drivers/STM32F0xx_HAL_Driver/Inc/stm32f0xx_ll_exti.h **** }
 593:Drivers/STM32F0xx_HAL_Driver/Inc/stm32f0xx_ll_exti.h **** 
 594:Drivers/STM32F0xx_HAL_Driver/Inc/stm32f0xx_ll_exti.h **** 
 595:Drivers/STM32F0xx_HAL_Driver/Inc/stm32f0xx_ll_exti.h **** /**
 596:Drivers/STM32F0xx_HAL_Driver/Inc/stm32f0xx_ll_exti.h ****   * @brief  Disable ExtiLine Rising Edge Trigger for Lines in range 0 to 31
 597:Drivers/STM32F0xx_HAL_Driver/Inc/stm32f0xx_ll_exti.h ****   * @note The configurable wakeup lines are edge-triggered. No glitch must be
 598:Drivers/STM32F0xx_HAL_Driver/Inc/stm32f0xx_ll_exti.h ****   *       generated on these lines. If a rising edge on a configurable interrupt
 599:Drivers/STM32F0xx_HAL_Driver/Inc/stm32f0xx_ll_exti.h ****   *       line occurs during a write operation in the EXTI_RTSR register, the
 600:Drivers/STM32F0xx_HAL_Driver/Inc/stm32f0xx_ll_exti.h ****   *       pending bit is not set.
ARM GAS  C:\Users\strag\AppData\Local\Temp\cc8irbMQ.s 			page 18


 601:Drivers/STM32F0xx_HAL_Driver/Inc/stm32f0xx_ll_exti.h ****   *       Rising and falling edge triggers can be set for
 602:Drivers/STM32F0xx_HAL_Driver/Inc/stm32f0xx_ll_exti.h ****   *       the same interrupt line. In this case, both generate a trigger
 603:Drivers/STM32F0xx_HAL_Driver/Inc/stm32f0xx_ll_exti.h ****   *       condition.
 604:Drivers/STM32F0xx_HAL_Driver/Inc/stm32f0xx_ll_exti.h ****   * @rmtoll RTSR        RTx           LL_EXTI_DisableRisingTrig_0_31
 605:Drivers/STM32F0xx_HAL_Driver/Inc/stm32f0xx_ll_exti.h ****   * @param  ExtiLine This parameter can be a combination of the following values:
 606:Drivers/STM32F0xx_HAL_Driver/Inc/stm32f0xx_ll_exti.h ****   *         @arg @ref LL_EXTI_LINE_0
 607:Drivers/STM32F0xx_HAL_Driver/Inc/stm32f0xx_ll_exti.h ****   *         @arg @ref LL_EXTI_LINE_1
 608:Drivers/STM32F0xx_HAL_Driver/Inc/stm32f0xx_ll_exti.h ****   *         @arg @ref LL_EXTI_LINE_2
 609:Drivers/STM32F0xx_HAL_Driver/Inc/stm32f0xx_ll_exti.h ****   *         @arg @ref LL_EXTI_LINE_3
 610:Drivers/STM32F0xx_HAL_Driver/Inc/stm32f0xx_ll_exti.h ****   *         @arg @ref LL_EXTI_LINE_4
 611:Drivers/STM32F0xx_HAL_Driver/Inc/stm32f0xx_ll_exti.h ****   *         @arg @ref LL_EXTI_LINE_5
 612:Drivers/STM32F0xx_HAL_Driver/Inc/stm32f0xx_ll_exti.h ****   *         @arg @ref LL_EXTI_LINE_6
 613:Drivers/STM32F0xx_HAL_Driver/Inc/stm32f0xx_ll_exti.h ****   *         @arg @ref LL_EXTI_LINE_7
 614:Drivers/STM32F0xx_HAL_Driver/Inc/stm32f0xx_ll_exti.h ****   *         @arg @ref LL_EXTI_LINE_8
 615:Drivers/STM32F0xx_HAL_Driver/Inc/stm32f0xx_ll_exti.h ****   *         @arg @ref LL_EXTI_LINE_9
 616:Drivers/STM32F0xx_HAL_Driver/Inc/stm32f0xx_ll_exti.h ****   *         @arg @ref LL_EXTI_LINE_10
 617:Drivers/STM32F0xx_HAL_Driver/Inc/stm32f0xx_ll_exti.h ****   *         @arg @ref LL_EXTI_LINE_11
 618:Drivers/STM32F0xx_HAL_Driver/Inc/stm32f0xx_ll_exti.h ****   *         @arg @ref LL_EXTI_LINE_12
 619:Drivers/STM32F0xx_HAL_Driver/Inc/stm32f0xx_ll_exti.h ****   *         @arg @ref LL_EXTI_LINE_13
 620:Drivers/STM32F0xx_HAL_Driver/Inc/stm32f0xx_ll_exti.h ****   *         @arg @ref LL_EXTI_LINE_14
 621:Drivers/STM32F0xx_HAL_Driver/Inc/stm32f0xx_ll_exti.h ****   *         @arg @ref LL_EXTI_LINE_15
 622:Drivers/STM32F0xx_HAL_Driver/Inc/stm32f0xx_ll_exti.h ****   *         @arg @ref LL_EXTI_LINE_16
 623:Drivers/STM32F0xx_HAL_Driver/Inc/stm32f0xx_ll_exti.h ****   *         @arg @ref LL_EXTI_LINE_18
 624:Drivers/STM32F0xx_HAL_Driver/Inc/stm32f0xx_ll_exti.h ****   *         @arg @ref LL_EXTI_LINE_19
 625:Drivers/STM32F0xx_HAL_Driver/Inc/stm32f0xx_ll_exti.h ****   *         @arg @ref LL_EXTI_LINE_20
 626:Drivers/STM32F0xx_HAL_Driver/Inc/stm32f0xx_ll_exti.h ****   *         @arg @ref LL_EXTI_LINE_21
 627:Drivers/STM32F0xx_HAL_Driver/Inc/stm32f0xx_ll_exti.h ****   *         @arg @ref LL_EXTI_LINE_22
 628:Drivers/STM32F0xx_HAL_Driver/Inc/stm32f0xx_ll_exti.h ****   *         @arg @ref LL_EXTI_LINE_29
 629:Drivers/STM32F0xx_HAL_Driver/Inc/stm32f0xx_ll_exti.h ****   *         @arg @ref LL_EXTI_LINE_30
 630:Drivers/STM32F0xx_HAL_Driver/Inc/stm32f0xx_ll_exti.h ****   *         @arg @ref LL_EXTI_LINE_31
 631:Drivers/STM32F0xx_HAL_Driver/Inc/stm32f0xx_ll_exti.h ****   * @note   Please check each device line mapping for EXTI Line availability
 632:Drivers/STM32F0xx_HAL_Driver/Inc/stm32f0xx_ll_exti.h ****   * @retval None
 633:Drivers/STM32F0xx_HAL_Driver/Inc/stm32f0xx_ll_exti.h ****   */
 634:Drivers/STM32F0xx_HAL_Driver/Inc/stm32f0xx_ll_exti.h **** __STATIC_INLINE void LL_EXTI_DisableRisingTrig_0_31(uint32_t ExtiLine)
 635:Drivers/STM32F0xx_HAL_Driver/Inc/stm32f0xx_ll_exti.h **** {
 636:Drivers/STM32F0xx_HAL_Driver/Inc/stm32f0xx_ll_exti.h ****   CLEAR_BIT(EXTI->RTSR, ExtiLine);
 637:Drivers/STM32F0xx_HAL_Driver/Inc/stm32f0xx_ll_exti.h **** 
 638:Drivers/STM32F0xx_HAL_Driver/Inc/stm32f0xx_ll_exti.h **** }
 639:Drivers/STM32F0xx_HAL_Driver/Inc/stm32f0xx_ll_exti.h **** 
 640:Drivers/STM32F0xx_HAL_Driver/Inc/stm32f0xx_ll_exti.h **** 
 641:Drivers/STM32F0xx_HAL_Driver/Inc/stm32f0xx_ll_exti.h **** /**
 642:Drivers/STM32F0xx_HAL_Driver/Inc/stm32f0xx_ll_exti.h ****   * @brief  Check if rising edge trigger is enabled for Lines in range 0 to 31
 643:Drivers/STM32F0xx_HAL_Driver/Inc/stm32f0xx_ll_exti.h ****   * @rmtoll RTSR        RTx           LL_EXTI_IsEnabledRisingTrig_0_31
 644:Drivers/STM32F0xx_HAL_Driver/Inc/stm32f0xx_ll_exti.h ****   * @param  ExtiLine This parameter can be a combination of the following values:
 645:Drivers/STM32F0xx_HAL_Driver/Inc/stm32f0xx_ll_exti.h ****   *         @arg @ref LL_EXTI_LINE_0
 646:Drivers/STM32F0xx_HAL_Driver/Inc/stm32f0xx_ll_exti.h ****   *         @arg @ref LL_EXTI_LINE_1
 647:Drivers/STM32F0xx_HAL_Driver/Inc/stm32f0xx_ll_exti.h ****   *         @arg @ref LL_EXTI_LINE_2
 648:Drivers/STM32F0xx_HAL_Driver/Inc/stm32f0xx_ll_exti.h ****   *         @arg @ref LL_EXTI_LINE_3
 649:Drivers/STM32F0xx_HAL_Driver/Inc/stm32f0xx_ll_exti.h ****   *         @arg @ref LL_EXTI_LINE_4
 650:Drivers/STM32F0xx_HAL_Driver/Inc/stm32f0xx_ll_exti.h ****   *         @arg @ref LL_EXTI_LINE_5
 651:Drivers/STM32F0xx_HAL_Driver/Inc/stm32f0xx_ll_exti.h ****   *         @arg @ref LL_EXTI_LINE_6
 652:Drivers/STM32F0xx_HAL_Driver/Inc/stm32f0xx_ll_exti.h ****   *         @arg @ref LL_EXTI_LINE_7
 653:Drivers/STM32F0xx_HAL_Driver/Inc/stm32f0xx_ll_exti.h ****   *         @arg @ref LL_EXTI_LINE_8
 654:Drivers/STM32F0xx_HAL_Driver/Inc/stm32f0xx_ll_exti.h ****   *         @arg @ref LL_EXTI_LINE_9
 655:Drivers/STM32F0xx_HAL_Driver/Inc/stm32f0xx_ll_exti.h ****   *         @arg @ref LL_EXTI_LINE_10
 656:Drivers/STM32F0xx_HAL_Driver/Inc/stm32f0xx_ll_exti.h ****   *         @arg @ref LL_EXTI_LINE_11
 657:Drivers/STM32F0xx_HAL_Driver/Inc/stm32f0xx_ll_exti.h ****   *         @arg @ref LL_EXTI_LINE_12
ARM GAS  C:\Users\strag\AppData\Local\Temp\cc8irbMQ.s 			page 19


 658:Drivers/STM32F0xx_HAL_Driver/Inc/stm32f0xx_ll_exti.h ****   *         @arg @ref LL_EXTI_LINE_13
 659:Drivers/STM32F0xx_HAL_Driver/Inc/stm32f0xx_ll_exti.h ****   *         @arg @ref LL_EXTI_LINE_14
 660:Drivers/STM32F0xx_HAL_Driver/Inc/stm32f0xx_ll_exti.h ****   *         @arg @ref LL_EXTI_LINE_15
 661:Drivers/STM32F0xx_HAL_Driver/Inc/stm32f0xx_ll_exti.h ****   *         @arg @ref LL_EXTI_LINE_16
 662:Drivers/STM32F0xx_HAL_Driver/Inc/stm32f0xx_ll_exti.h ****   *         @arg @ref LL_EXTI_LINE_18
 663:Drivers/STM32F0xx_HAL_Driver/Inc/stm32f0xx_ll_exti.h ****   *         @arg @ref LL_EXTI_LINE_19
 664:Drivers/STM32F0xx_HAL_Driver/Inc/stm32f0xx_ll_exti.h ****   *         @arg @ref LL_EXTI_LINE_20
 665:Drivers/STM32F0xx_HAL_Driver/Inc/stm32f0xx_ll_exti.h ****   *         @arg @ref LL_EXTI_LINE_21
 666:Drivers/STM32F0xx_HAL_Driver/Inc/stm32f0xx_ll_exti.h ****   *         @arg @ref LL_EXTI_LINE_22
 667:Drivers/STM32F0xx_HAL_Driver/Inc/stm32f0xx_ll_exti.h ****   *         @arg @ref LL_EXTI_LINE_29
 668:Drivers/STM32F0xx_HAL_Driver/Inc/stm32f0xx_ll_exti.h ****   *         @arg @ref LL_EXTI_LINE_30
 669:Drivers/STM32F0xx_HAL_Driver/Inc/stm32f0xx_ll_exti.h ****   *         @arg @ref LL_EXTI_LINE_31
 670:Drivers/STM32F0xx_HAL_Driver/Inc/stm32f0xx_ll_exti.h ****   * @note   Please check each device line mapping for EXTI Line availability
 671:Drivers/STM32F0xx_HAL_Driver/Inc/stm32f0xx_ll_exti.h ****   * @retval State of bit (1 or 0).
 672:Drivers/STM32F0xx_HAL_Driver/Inc/stm32f0xx_ll_exti.h ****   */
 673:Drivers/STM32F0xx_HAL_Driver/Inc/stm32f0xx_ll_exti.h **** __STATIC_INLINE uint32_t LL_EXTI_IsEnabledRisingTrig_0_31(uint32_t ExtiLine)
 674:Drivers/STM32F0xx_HAL_Driver/Inc/stm32f0xx_ll_exti.h **** {
 675:Drivers/STM32F0xx_HAL_Driver/Inc/stm32f0xx_ll_exti.h ****   return (READ_BIT(EXTI->RTSR, ExtiLine) == (ExtiLine));
 676:Drivers/STM32F0xx_HAL_Driver/Inc/stm32f0xx_ll_exti.h **** }
 677:Drivers/STM32F0xx_HAL_Driver/Inc/stm32f0xx_ll_exti.h **** 
 678:Drivers/STM32F0xx_HAL_Driver/Inc/stm32f0xx_ll_exti.h **** 
 679:Drivers/STM32F0xx_HAL_Driver/Inc/stm32f0xx_ll_exti.h **** /**
 680:Drivers/STM32F0xx_HAL_Driver/Inc/stm32f0xx_ll_exti.h ****   * @}
 681:Drivers/STM32F0xx_HAL_Driver/Inc/stm32f0xx_ll_exti.h ****   */
 682:Drivers/STM32F0xx_HAL_Driver/Inc/stm32f0xx_ll_exti.h **** 
 683:Drivers/STM32F0xx_HAL_Driver/Inc/stm32f0xx_ll_exti.h **** /** @defgroup EXTI_LL_EF_Falling_Trigger_Management Falling_Trigger_Management
 684:Drivers/STM32F0xx_HAL_Driver/Inc/stm32f0xx_ll_exti.h ****   * @{
 685:Drivers/STM32F0xx_HAL_Driver/Inc/stm32f0xx_ll_exti.h ****   */
 686:Drivers/STM32F0xx_HAL_Driver/Inc/stm32f0xx_ll_exti.h **** 
 687:Drivers/STM32F0xx_HAL_Driver/Inc/stm32f0xx_ll_exti.h **** /**
 688:Drivers/STM32F0xx_HAL_Driver/Inc/stm32f0xx_ll_exti.h ****   * @brief  Enable ExtiLine Falling Edge Trigger for Lines in range 0 to 31
 689:Drivers/STM32F0xx_HAL_Driver/Inc/stm32f0xx_ll_exti.h ****   * @note The configurable wakeup lines are edge-triggered. No glitch must be
 690:Drivers/STM32F0xx_HAL_Driver/Inc/stm32f0xx_ll_exti.h ****   *       generated on these lines. If a falling edge on a configurable interrupt
 691:Drivers/STM32F0xx_HAL_Driver/Inc/stm32f0xx_ll_exti.h ****   *       line occurs during a write operation in the EXTI_FTSR register, the
 692:Drivers/STM32F0xx_HAL_Driver/Inc/stm32f0xx_ll_exti.h ****   *       pending bit is not set.
 693:Drivers/STM32F0xx_HAL_Driver/Inc/stm32f0xx_ll_exti.h ****   *       Rising and falling edge triggers can be set for
 694:Drivers/STM32F0xx_HAL_Driver/Inc/stm32f0xx_ll_exti.h ****   *       the same interrupt line. In this case, both generate a trigger
 695:Drivers/STM32F0xx_HAL_Driver/Inc/stm32f0xx_ll_exti.h ****   *       condition.
 696:Drivers/STM32F0xx_HAL_Driver/Inc/stm32f0xx_ll_exti.h ****   * @rmtoll FTSR        FTx           LL_EXTI_EnableFallingTrig_0_31
 697:Drivers/STM32F0xx_HAL_Driver/Inc/stm32f0xx_ll_exti.h ****   * @param  ExtiLine This parameter can be a combination of the following values:
 698:Drivers/STM32F0xx_HAL_Driver/Inc/stm32f0xx_ll_exti.h ****   *         @arg @ref LL_EXTI_LINE_0
 699:Drivers/STM32F0xx_HAL_Driver/Inc/stm32f0xx_ll_exti.h ****   *         @arg @ref LL_EXTI_LINE_1
 700:Drivers/STM32F0xx_HAL_Driver/Inc/stm32f0xx_ll_exti.h ****   *         @arg @ref LL_EXTI_LINE_2
 701:Drivers/STM32F0xx_HAL_Driver/Inc/stm32f0xx_ll_exti.h ****   *         @arg @ref LL_EXTI_LINE_3
 702:Drivers/STM32F0xx_HAL_Driver/Inc/stm32f0xx_ll_exti.h ****   *         @arg @ref LL_EXTI_LINE_4
 703:Drivers/STM32F0xx_HAL_Driver/Inc/stm32f0xx_ll_exti.h ****   *         @arg @ref LL_EXTI_LINE_5
 704:Drivers/STM32F0xx_HAL_Driver/Inc/stm32f0xx_ll_exti.h ****   *         @arg @ref LL_EXTI_LINE_6
 705:Drivers/STM32F0xx_HAL_Driver/Inc/stm32f0xx_ll_exti.h ****   *         @arg @ref LL_EXTI_LINE_7
 706:Drivers/STM32F0xx_HAL_Driver/Inc/stm32f0xx_ll_exti.h ****   *         @arg @ref LL_EXTI_LINE_8
 707:Drivers/STM32F0xx_HAL_Driver/Inc/stm32f0xx_ll_exti.h ****   *         @arg @ref LL_EXTI_LINE_9
 708:Drivers/STM32F0xx_HAL_Driver/Inc/stm32f0xx_ll_exti.h ****   *         @arg @ref LL_EXTI_LINE_10
 709:Drivers/STM32F0xx_HAL_Driver/Inc/stm32f0xx_ll_exti.h ****   *         @arg @ref LL_EXTI_LINE_11
 710:Drivers/STM32F0xx_HAL_Driver/Inc/stm32f0xx_ll_exti.h ****   *         @arg @ref LL_EXTI_LINE_12
 711:Drivers/STM32F0xx_HAL_Driver/Inc/stm32f0xx_ll_exti.h ****   *         @arg @ref LL_EXTI_LINE_13
 712:Drivers/STM32F0xx_HAL_Driver/Inc/stm32f0xx_ll_exti.h ****   *         @arg @ref LL_EXTI_LINE_14
 713:Drivers/STM32F0xx_HAL_Driver/Inc/stm32f0xx_ll_exti.h ****   *         @arg @ref LL_EXTI_LINE_15
 714:Drivers/STM32F0xx_HAL_Driver/Inc/stm32f0xx_ll_exti.h ****   *         @arg @ref LL_EXTI_LINE_16
ARM GAS  C:\Users\strag\AppData\Local\Temp\cc8irbMQ.s 			page 20


 715:Drivers/STM32F0xx_HAL_Driver/Inc/stm32f0xx_ll_exti.h ****   *         @arg @ref LL_EXTI_LINE_18
 716:Drivers/STM32F0xx_HAL_Driver/Inc/stm32f0xx_ll_exti.h ****   *         @arg @ref LL_EXTI_LINE_19
 717:Drivers/STM32F0xx_HAL_Driver/Inc/stm32f0xx_ll_exti.h ****   *         @arg @ref LL_EXTI_LINE_20
 718:Drivers/STM32F0xx_HAL_Driver/Inc/stm32f0xx_ll_exti.h ****   *         @arg @ref LL_EXTI_LINE_21
 719:Drivers/STM32F0xx_HAL_Driver/Inc/stm32f0xx_ll_exti.h ****   *         @arg @ref LL_EXTI_LINE_22
 720:Drivers/STM32F0xx_HAL_Driver/Inc/stm32f0xx_ll_exti.h ****   *         @arg @ref LL_EXTI_LINE_29
 721:Drivers/STM32F0xx_HAL_Driver/Inc/stm32f0xx_ll_exti.h ****   *         @arg @ref LL_EXTI_LINE_30
 722:Drivers/STM32F0xx_HAL_Driver/Inc/stm32f0xx_ll_exti.h ****   *         @arg @ref LL_EXTI_LINE_31
 723:Drivers/STM32F0xx_HAL_Driver/Inc/stm32f0xx_ll_exti.h ****   * @note   Please check each device line mapping for EXTI Line availability
 724:Drivers/STM32F0xx_HAL_Driver/Inc/stm32f0xx_ll_exti.h ****   * @retval None
 725:Drivers/STM32F0xx_HAL_Driver/Inc/stm32f0xx_ll_exti.h ****   */
 726:Drivers/STM32F0xx_HAL_Driver/Inc/stm32f0xx_ll_exti.h **** __STATIC_INLINE void LL_EXTI_EnableFallingTrig_0_31(uint32_t ExtiLine)
 727:Drivers/STM32F0xx_HAL_Driver/Inc/stm32f0xx_ll_exti.h **** {
 728:Drivers/STM32F0xx_HAL_Driver/Inc/stm32f0xx_ll_exti.h ****   SET_BIT(EXTI->FTSR, ExtiLine);
 729:Drivers/STM32F0xx_HAL_Driver/Inc/stm32f0xx_ll_exti.h **** }
 730:Drivers/STM32F0xx_HAL_Driver/Inc/stm32f0xx_ll_exti.h **** 
 731:Drivers/STM32F0xx_HAL_Driver/Inc/stm32f0xx_ll_exti.h **** 
 732:Drivers/STM32F0xx_HAL_Driver/Inc/stm32f0xx_ll_exti.h **** /**
 733:Drivers/STM32F0xx_HAL_Driver/Inc/stm32f0xx_ll_exti.h ****   * @brief  Disable ExtiLine Falling Edge Trigger for Lines in range 0 to 31
 734:Drivers/STM32F0xx_HAL_Driver/Inc/stm32f0xx_ll_exti.h ****   * @note The configurable wakeup lines are edge-triggered. No glitch must be
 735:Drivers/STM32F0xx_HAL_Driver/Inc/stm32f0xx_ll_exti.h ****   *       generated on these lines. If a Falling edge on a configurable interrupt
 736:Drivers/STM32F0xx_HAL_Driver/Inc/stm32f0xx_ll_exti.h ****   *       line occurs during a write operation in the EXTI_FTSR register, the
 737:Drivers/STM32F0xx_HAL_Driver/Inc/stm32f0xx_ll_exti.h ****   *       pending bit is not set.
 738:Drivers/STM32F0xx_HAL_Driver/Inc/stm32f0xx_ll_exti.h ****   *       Rising and falling edge triggers can be set for the same interrupt line.
 739:Drivers/STM32F0xx_HAL_Driver/Inc/stm32f0xx_ll_exti.h ****   *       In this case, both generate a trigger condition.
 740:Drivers/STM32F0xx_HAL_Driver/Inc/stm32f0xx_ll_exti.h ****   * @rmtoll FTSR        FTx           LL_EXTI_DisableFallingTrig_0_31
 741:Drivers/STM32F0xx_HAL_Driver/Inc/stm32f0xx_ll_exti.h ****   * @param  ExtiLine This parameter can be a combination of the following values:
 742:Drivers/STM32F0xx_HAL_Driver/Inc/stm32f0xx_ll_exti.h ****   *         @arg @ref LL_EXTI_LINE_0
 743:Drivers/STM32F0xx_HAL_Driver/Inc/stm32f0xx_ll_exti.h ****   *         @arg @ref LL_EXTI_LINE_1
 744:Drivers/STM32F0xx_HAL_Driver/Inc/stm32f0xx_ll_exti.h ****   *         @arg @ref LL_EXTI_LINE_2
 745:Drivers/STM32F0xx_HAL_Driver/Inc/stm32f0xx_ll_exti.h ****   *         @arg @ref LL_EXTI_LINE_3
 746:Drivers/STM32F0xx_HAL_Driver/Inc/stm32f0xx_ll_exti.h ****   *         @arg @ref LL_EXTI_LINE_4
 747:Drivers/STM32F0xx_HAL_Driver/Inc/stm32f0xx_ll_exti.h ****   *         @arg @ref LL_EXTI_LINE_5
 748:Drivers/STM32F0xx_HAL_Driver/Inc/stm32f0xx_ll_exti.h ****   *         @arg @ref LL_EXTI_LINE_6
 749:Drivers/STM32F0xx_HAL_Driver/Inc/stm32f0xx_ll_exti.h ****   *         @arg @ref LL_EXTI_LINE_7
 750:Drivers/STM32F0xx_HAL_Driver/Inc/stm32f0xx_ll_exti.h ****   *         @arg @ref LL_EXTI_LINE_8
 751:Drivers/STM32F0xx_HAL_Driver/Inc/stm32f0xx_ll_exti.h ****   *         @arg @ref LL_EXTI_LINE_9
 752:Drivers/STM32F0xx_HAL_Driver/Inc/stm32f0xx_ll_exti.h ****   *         @arg @ref LL_EXTI_LINE_10
 753:Drivers/STM32F0xx_HAL_Driver/Inc/stm32f0xx_ll_exti.h ****   *         @arg @ref LL_EXTI_LINE_11
 754:Drivers/STM32F0xx_HAL_Driver/Inc/stm32f0xx_ll_exti.h ****   *         @arg @ref LL_EXTI_LINE_12
 755:Drivers/STM32F0xx_HAL_Driver/Inc/stm32f0xx_ll_exti.h ****   *         @arg @ref LL_EXTI_LINE_13
 756:Drivers/STM32F0xx_HAL_Driver/Inc/stm32f0xx_ll_exti.h ****   *         @arg @ref LL_EXTI_LINE_14
 757:Drivers/STM32F0xx_HAL_Driver/Inc/stm32f0xx_ll_exti.h ****   *         @arg @ref LL_EXTI_LINE_15
 758:Drivers/STM32F0xx_HAL_Driver/Inc/stm32f0xx_ll_exti.h ****   *         @arg @ref LL_EXTI_LINE_16
 759:Drivers/STM32F0xx_HAL_Driver/Inc/stm32f0xx_ll_exti.h ****   *         @arg @ref LL_EXTI_LINE_18
 760:Drivers/STM32F0xx_HAL_Driver/Inc/stm32f0xx_ll_exti.h ****   *         @arg @ref LL_EXTI_LINE_19
 761:Drivers/STM32F0xx_HAL_Driver/Inc/stm32f0xx_ll_exti.h ****   *         @arg @ref LL_EXTI_LINE_20
 762:Drivers/STM32F0xx_HAL_Driver/Inc/stm32f0xx_ll_exti.h ****   *         @arg @ref LL_EXTI_LINE_21
 763:Drivers/STM32F0xx_HAL_Driver/Inc/stm32f0xx_ll_exti.h ****   *         @arg @ref LL_EXTI_LINE_22
 764:Drivers/STM32F0xx_HAL_Driver/Inc/stm32f0xx_ll_exti.h ****   *         @arg @ref LL_EXTI_LINE_29
 765:Drivers/STM32F0xx_HAL_Driver/Inc/stm32f0xx_ll_exti.h ****   *         @arg @ref LL_EXTI_LINE_30
 766:Drivers/STM32F0xx_HAL_Driver/Inc/stm32f0xx_ll_exti.h ****   *         @arg @ref LL_EXTI_LINE_31
 767:Drivers/STM32F0xx_HAL_Driver/Inc/stm32f0xx_ll_exti.h ****   * @note   Please check each device line mapping for EXTI Line availability
 768:Drivers/STM32F0xx_HAL_Driver/Inc/stm32f0xx_ll_exti.h ****   * @retval None
 769:Drivers/STM32F0xx_HAL_Driver/Inc/stm32f0xx_ll_exti.h ****   */
 770:Drivers/STM32F0xx_HAL_Driver/Inc/stm32f0xx_ll_exti.h **** __STATIC_INLINE void LL_EXTI_DisableFallingTrig_0_31(uint32_t ExtiLine)
 771:Drivers/STM32F0xx_HAL_Driver/Inc/stm32f0xx_ll_exti.h **** {
ARM GAS  C:\Users\strag\AppData\Local\Temp\cc8irbMQ.s 			page 21


 772:Drivers/STM32F0xx_HAL_Driver/Inc/stm32f0xx_ll_exti.h ****   CLEAR_BIT(EXTI->FTSR, ExtiLine);
 195              		.loc 2 772 0
 196 006e 174A     		ldr	r2, .L19
 197 0070 D168     		ldr	r1, [r2, #12]
 198 0072 0468     		ldr	r4, [r0]
 199 0074 A143     		bics	r1, r4
 200 0076 D160     		str	r1, [r2, #12]
 201              	.LVL15:
 202              	.LBE43:
 203              	.LBE42:
 171:Drivers/STM32F0xx_HAL_Driver/Src/stm32f0xx_ll_exti.c ****         {
 172:Drivers/STM32F0xx_HAL_Driver/Src/stm32f0xx_ll_exti.c ****           case LL_EXTI_TRIGGER_RISING:
 173:Drivers/STM32F0xx_HAL_Driver/Src/stm32f0xx_ll_exti.c ****             /* First Disable Falling Trigger on provided Lines */
 174:Drivers/STM32F0xx_HAL_Driver/Src/stm32f0xx_ll_exti.c ****             LL_EXTI_DisableFallingTrig_0_31(EXTI_InitStruct->Line_0_31);
 175:Drivers/STM32F0xx_HAL_Driver/Src/stm32f0xx_ll_exti.c ****             /* Then Enable Rising Trigger on provided Lines */
 176:Drivers/STM32F0xx_HAL_Driver/Src/stm32f0xx_ll_exti.c ****             LL_EXTI_EnableRisingTrig_0_31(EXTI_InitStruct->Line_0_31);
 204              		.loc 1 176 0
 205 0078 0168     		ldr	r1, [r0]
 206              	.LVL16:
 207              	.LBB44:
 208              	.LBB45:
 590:Drivers/STM32F0xx_HAL_Driver/Inc/stm32f0xx_ll_exti.h **** 
 209              		.loc 2 590 0
 210 007a 9068     		ldr	r0, [r2, #8]
 211              	.LVL17:
 212 007c 0143     		orrs	r1, r0
 213              	.LVL18:
 214 007e 9160     		str	r1, [r2, #8]
 215              	.LVL19:
 216 0080 21E0     		b	.L6
 217              	.LVL20:
 218              	.L11:
 219              	.LBE45:
 220              	.LBE44:
 221              	.LBB46:
 222              	.LBB47:
 636:Drivers/STM32F0xx_HAL_Driver/Inc/stm32f0xx_ll_exti.h **** 
 223              		.loc 2 636 0
 224 0082 124A     		ldr	r2, .L19
 225 0084 9168     		ldr	r1, [r2, #8]
 226 0086 0468     		ldr	r4, [r0]
 227 0088 A143     		bics	r1, r4
 228 008a 9160     		str	r1, [r2, #8]
 229              	.LVL21:
 230              	.LBE47:
 231              	.LBE46:
 177:Drivers/STM32F0xx_HAL_Driver/Src/stm32f0xx_ll_exti.c ****             break;
 178:Drivers/STM32F0xx_HAL_Driver/Src/stm32f0xx_ll_exti.c ****           case LL_EXTI_TRIGGER_FALLING:
 179:Drivers/STM32F0xx_HAL_Driver/Src/stm32f0xx_ll_exti.c ****             /* First Disable Rising Trigger on provided Lines */
 180:Drivers/STM32F0xx_HAL_Driver/Src/stm32f0xx_ll_exti.c ****             LL_EXTI_DisableRisingTrig_0_31(EXTI_InitStruct->Line_0_31);
 181:Drivers/STM32F0xx_HAL_Driver/Src/stm32f0xx_ll_exti.c ****             /* Then Enable Falling Trigger on provided Lines */
 182:Drivers/STM32F0xx_HAL_Driver/Src/stm32f0xx_ll_exti.c ****             LL_EXTI_EnableFallingTrig_0_31(EXTI_InitStruct->Line_0_31);
 232              		.loc 1 182 0
 233 008c 0068     		ldr	r0, [r0]
 234              	.LVL22:
 235              	.LBB48:
 236              	.LBB49:
ARM GAS  C:\Users\strag\AppData\Local\Temp\cc8irbMQ.s 			page 22


 728:Drivers/STM32F0xx_HAL_Driver/Inc/stm32f0xx_ll_exti.h **** }
 237              		.loc 2 728 0
 238 008e D168     		ldr	r1, [r2, #12]
 239 0090 0143     		orrs	r1, r0
 240 0092 D160     		str	r1, [r2, #12]
 241 0094 17E0     		b	.L6
 242              	.LVL23:
 243              	.L12:
 244              	.LBE49:
 245              	.LBE48:
 246              	.LBB50:
 247              	.LBB51:
 590:Drivers/STM32F0xx_HAL_Driver/Inc/stm32f0xx_ll_exti.h **** 
 248              		.loc 2 590 0
 249 0096 0D4A     		ldr	r2, .L19
 250 0098 9168     		ldr	r1, [r2, #8]
 251 009a 0468     		ldr	r4, [r0]
 252 009c 2143     		orrs	r1, r4
 253 009e 9160     		str	r1, [r2, #8]
 254              	.LVL24:
 255              	.LBE51:
 256              	.LBE50:
 183:Drivers/STM32F0xx_HAL_Driver/Src/stm32f0xx_ll_exti.c ****             break;
 184:Drivers/STM32F0xx_HAL_Driver/Src/stm32f0xx_ll_exti.c ****           case LL_EXTI_TRIGGER_RISING_FALLING:
 185:Drivers/STM32F0xx_HAL_Driver/Src/stm32f0xx_ll_exti.c ****             LL_EXTI_EnableRisingTrig_0_31(EXTI_InitStruct->Line_0_31);
 186:Drivers/STM32F0xx_HAL_Driver/Src/stm32f0xx_ll_exti.c ****             LL_EXTI_EnableFallingTrig_0_31(EXTI_InitStruct->Line_0_31);
 257              		.loc 1 186 0
 258 00a0 0068     		ldr	r0, [r0]
 259              	.LVL25:
 260              	.LBB52:
 261              	.LBB53:
 728:Drivers/STM32F0xx_HAL_Driver/Inc/stm32f0xx_ll_exti.h **** }
 262              		.loc 2 728 0
 263 00a2 D168     		ldr	r1, [r2, #12]
 264 00a4 0143     		orrs	r1, r0
 265 00a6 D160     		str	r1, [r2, #12]
 266 00a8 0DE0     		b	.L6
 267              	.LVL26:
 268              	.L5:
 269              	.LBE53:
 270              	.LBE52:
 271              	.LBB54:
 272              	.LBB55:
 340:Drivers/STM32F0xx_HAL_Driver/Inc/stm32f0xx_ll_exti.h **** }
 273              		.loc 2 340 0
 274 00aa 084B     		ldr	r3, .L19
 275 00ac 1A68     		ldr	r2, [r3]
 276 00ae 0168     		ldr	r1, [r0]
 277 00b0 8A43     		bics	r2, r1
 278 00b2 1A60     		str	r2, [r3]
 279              	.LVL27:
 280              	.LBE55:
 281              	.LBE54:
 187:Drivers/STM32F0xx_HAL_Driver/Src/stm32f0xx_ll_exti.c ****             break;
 188:Drivers/STM32F0xx_HAL_Driver/Src/stm32f0xx_ll_exti.c ****           default:
 189:Drivers/STM32F0xx_HAL_Driver/Src/stm32f0xx_ll_exti.c ****             status = ERROR;
 190:Drivers/STM32F0xx_HAL_Driver/Src/stm32f0xx_ll_exti.c ****             break;
ARM GAS  C:\Users\strag\AppData\Local\Temp\cc8irbMQ.s 			page 23


 191:Drivers/STM32F0xx_HAL_Driver/Src/stm32f0xx_ll_exti.c ****         }
 192:Drivers/STM32F0xx_HAL_Driver/Src/stm32f0xx_ll_exti.c ****       }
 193:Drivers/STM32F0xx_HAL_Driver/Src/stm32f0xx_ll_exti.c ****     }
 194:Drivers/STM32F0xx_HAL_Driver/Src/stm32f0xx_ll_exti.c ****   }
 195:Drivers/STM32F0xx_HAL_Driver/Src/stm32f0xx_ll_exti.c ****   /* DISABLE LineCommand */
 196:Drivers/STM32F0xx_HAL_Driver/Src/stm32f0xx_ll_exti.c ****   else
 197:Drivers/STM32F0xx_HAL_Driver/Src/stm32f0xx_ll_exti.c ****   {
 198:Drivers/STM32F0xx_HAL_Driver/Src/stm32f0xx_ll_exti.c ****     /* De-configure EXTI Lines in range from 0 to 31 */
 199:Drivers/STM32F0xx_HAL_Driver/Src/stm32f0xx_ll_exti.c ****     LL_EXTI_DisableIT_0_31(EXTI_InitStruct->Line_0_31);
 200:Drivers/STM32F0xx_HAL_Driver/Src/stm32f0xx_ll_exti.c ****     LL_EXTI_DisableEvent_0_31(EXTI_InitStruct->Line_0_31);
 282              		.loc 1 200 0
 283 00b4 0168     		ldr	r1, [r0]
 284              	.LVL28:
 285              	.LBB56:
 286              	.LBB57:
 490:Drivers/STM32F0xx_HAL_Driver/Inc/stm32f0xx_ll_exti.h **** }
 287              		.loc 2 490 0
 288 00b6 5A68     		ldr	r2, [r3, #4]
 289 00b8 8A43     		bics	r2, r1
 290 00ba 5A60     		str	r2, [r3, #4]
 291              	.LBE57:
 292              	.LBE56:
 131:Drivers/STM32F0xx_HAL_Driver/Src/stm32f0xx_ll_exti.c ****   /* Check the parameters */
 293              		.loc 1 131 0
 294 00bc 0123     		movs	r3, #1
 295 00be 02E0     		b	.L6
 296              	.LVL29:
 297              	.L14:
 298 00c0 0123     		movs	r3, #1
 299 00c2 00E0     		b	.L6
 300              	.LVL30:
 301              	.L18:
 189:Drivers/STM32F0xx_HAL_Driver/Src/stm32f0xx_ll_exti.c ****             break;
 302              		.loc 1 189 0
 303 00c4 0023     		movs	r3, #0
 304              	.LVL31:
 305              	.L6:
 201:Drivers/STM32F0xx_HAL_Driver/Src/stm32f0xx_ll_exti.c ****   }
 202:Drivers/STM32F0xx_HAL_Driver/Src/stm32f0xx_ll_exti.c ****   return status;
 203:Drivers/STM32F0xx_HAL_Driver/Src/stm32f0xx_ll_exti.c **** }
 306              		.loc 1 203 0
 307 00c6 1800     		movs	r0, r3
 308              		@ sp needed
 309 00c8 10BD     		pop	{r4, pc}
 310              	.L20:
 311 00ca C046     		.align	2
 312              	.L19:
 313 00cc 00040140 		.word	1073808384
 314              		.cfi_endproc
 315              	.LFE51:
 317              		.section	.text.LL_EXTI_StructInit,"ax",%progbits
 318              		.align	2
 319              		.global	LL_EXTI_StructInit
 320              		.code	16
 321              		.thumb_func
 323              	LL_EXTI_StructInit:
 324              	.LFB52:
ARM GAS  C:\Users\strag\AppData\Local\Temp\cc8irbMQ.s 			page 24


 204:Drivers/STM32F0xx_HAL_Driver/Src/stm32f0xx_ll_exti.c **** 
 205:Drivers/STM32F0xx_HAL_Driver/Src/stm32f0xx_ll_exti.c **** /**
 206:Drivers/STM32F0xx_HAL_Driver/Src/stm32f0xx_ll_exti.c ****   * @brief  Set each @ref LL_EXTI_InitTypeDef field to default value.
 207:Drivers/STM32F0xx_HAL_Driver/Src/stm32f0xx_ll_exti.c ****   * @param  EXTI_InitStruct Pointer to a @ref LL_EXTI_InitTypeDef structure.
 208:Drivers/STM32F0xx_HAL_Driver/Src/stm32f0xx_ll_exti.c ****   * @retval None
 209:Drivers/STM32F0xx_HAL_Driver/Src/stm32f0xx_ll_exti.c ****   */
 210:Drivers/STM32F0xx_HAL_Driver/Src/stm32f0xx_ll_exti.c **** void LL_EXTI_StructInit(LL_EXTI_InitTypeDef *EXTI_InitStruct)
 211:Drivers/STM32F0xx_HAL_Driver/Src/stm32f0xx_ll_exti.c **** {
 325              		.loc 1 211 0
 326              		.cfi_startproc
 327              		@ args = 0, pretend = 0, frame = 0
 328              		@ frame_needed = 0, uses_anonymous_args = 0
 329              		@ link register save eliminated.
 330              	.LVL32:
 212:Drivers/STM32F0xx_HAL_Driver/Src/stm32f0xx_ll_exti.c ****   EXTI_InitStruct->Line_0_31      = LL_EXTI_LINE_NONE;
 331              		.loc 1 212 0
 332 0000 0023     		movs	r3, #0
 333 0002 0360     		str	r3, [r0]
 213:Drivers/STM32F0xx_HAL_Driver/Src/stm32f0xx_ll_exti.c ****   EXTI_InitStruct->LineCommand    = DISABLE;
 334              		.loc 1 213 0
 335 0004 0371     		strb	r3, [r0, #4]
 214:Drivers/STM32F0xx_HAL_Driver/Src/stm32f0xx_ll_exti.c ****   EXTI_InitStruct->Mode           = LL_EXTI_MODE_IT;
 336              		.loc 1 214 0
 337 0006 4371     		strb	r3, [r0, #5]
 215:Drivers/STM32F0xx_HAL_Driver/Src/stm32f0xx_ll_exti.c ****   EXTI_InitStruct->Trigger        = LL_EXTI_TRIGGER_FALLING;
 338              		.loc 1 215 0
 339 0008 0233     		adds	r3, r3, #2
 340 000a 8371     		strb	r3, [r0, #6]
 216:Drivers/STM32F0xx_HAL_Driver/Src/stm32f0xx_ll_exti.c **** }
 341              		.loc 1 216 0
 342              		@ sp needed
 343 000c 7047     		bx	lr
 344              		.cfi_endproc
 345              	.LFE52:
 347 000e C046     		.text
 348              	.Letext0:
 349              		.file 3 "d:\\gcc-arm-none-eabi-5_4-2016q3-20160926-win32\\arm-none-eabi\\include\\machine\\_defaul
 350              		.file 4 "d:\\gcc-arm-none-eabi-5_4-2016q3-20160926-win32\\arm-none-eabi\\include\\sys\\_stdint.h"
 351              		.file 5 "Drivers/CMSIS/Device/ST/STM32F0xx/Include/stm32f070x6.h"
 352              		.file 6 "Drivers/CMSIS/Device/ST/STM32F0xx/Include/stm32f0xx.h"
ARM GAS  C:\Users\strag\AppData\Local\Temp\cc8irbMQ.s 			page 25


DEFINED SYMBOLS
                            *ABS*:00000000 stm32f0xx_ll_exti.c
C:\Users\strag\AppData\Local\Temp\cc8irbMQ.s:20     .text.LL_EXTI_DeInit:00000000 $t
C:\Users\strag\AppData\Local\Temp\cc8irbMQ.s:25     .text.LL_EXTI_DeInit:00000000 LL_EXTI_DeInit
C:\Users\strag\AppData\Local\Temp\cc8irbMQ.s:56     .text.LL_EXTI_DeInit:00000018 $d
C:\Users\strag\AppData\Local\Temp\cc8irbMQ.s:63     .text.LL_EXTI_Init:00000000 $t
C:\Users\strag\AppData\Local\Temp\cc8irbMQ.s:68     .text.LL_EXTI_Init:00000000 LL_EXTI_Init
C:\Users\strag\AppData\Local\Temp\cc8irbMQ.s:313    .text.LL_EXTI_Init:000000cc $d
C:\Users\strag\AppData\Local\Temp\cc8irbMQ.s:318    .text.LL_EXTI_StructInit:00000000 $t
C:\Users\strag\AppData\Local\Temp\cc8irbMQ.s:323    .text.LL_EXTI_StructInit:00000000 LL_EXTI_StructInit
                     .debug_frame:00000010 $d

NO UNDEFINED SYMBOLS
